

Microchip Technology PIC18 LITE Macro Assembler V1.35 build -356382666 
                                                                                               Wed Jan 20 21:59:54 2016

Microchip Technology Omniscient Code Generator v1.35 (Free mode) build 201507080246
     1                           	processor	18F14K50
     2                           	fnconf	rparam,??,?,0
     3                           	opt	pw 120
     4                           	opt	lm
     5                           	psect	smallconst,global,reloc=2,class=SMALLCONST,delta=1
     6                           	psect	cinit,global,reloc=2,class=CODE,delta=1
     7                           	psect	bssCOMRAM,global,class=COMRAM,space=1,delta=1
     8                           	psect	bssBANK0,global,class=BANK0,space=1,delta=1
     9                           	psect	cstackBANK1,global,class=BANK1,space=1,delta=1
    10                           	psect	cstackBANK0,global,class=BANK0,space=1,delta=1
    11                           	psect	cstackCOMRAM,global,class=COMRAM,space=1,delta=1
    12                           	psect	text0,global,reloc=2,class=CODE,delta=1
    13                           	psect	text1,global,reloc=2,class=CODE,delta=1
    14                           	psect	text2,global,reloc=2,class=CODE,delta=1
    15                           	psect	text3,global,reloc=2,class=CODE,delta=1
    16                           	psect	text4,global,reloc=2,class=CODE,delta=1
    17                           	psect	text5,global,reloc=2,class=CODE,delta=1
    18                           	psect	text6,global,reloc=2,class=CODE,delta=1
    19                           	psect	text7,global,reloc=2,class=CODE,delta=1
    20                           	psect	text8,global,reloc=2,class=CODE,delta=1
    21                           	psect	text9,global,reloc=2,class=CODE,delta=1
    22                           	psect	text10,global,reloc=2,class=CODE,delta=1
    23                           	psect	text11,global,reloc=2,class=CODE,delta=1
    24                           	psect	text12,global,reloc=2,class=CODE,delta=1
    25                           	psect	text13,global,reloc=2,class=CODE,delta=1
    26                           	psect	text14,global,reloc=2,class=CODE,delta=1
    27                           	psect	text15,global,reloc=2,class=CODE,delta=1
    28                           	psect	intcode,global,reloc=2,class=CODE,delta=1
    29                           	psect	text17,global,reloc=2,class=CODE,delta=1
    30                           	psect	text18,global,reloc=2,class=CODE,delta=1
    31                           	psect	text19,global,reloc=2,class=CODE,delta=1
    32                           	psect	text20,global,reloc=2,class=CODE,delta=1
    33                           	psect	text21,global,reloc=2,class=CODE,delta=1
    34                           	psect	text22,global,reloc=2,class=CODE,delta=1
    35                           	psect	text23,global,reloc=2,class=CODE,delta=1
    36                           	psect	text24,global,reloc=2,class=CODE,delta=1
    37                           	psect	text25,global,reloc=2,class=CODE,delta=1
    38                           	psect	text26,global,reloc=2,class=CODE,delta=1
    39                           	psect	text27,global,reloc=2,class=CODE,delta=1
    40                           	psect	text28,global,reloc=2,class=CODE,delta=1
    41                           	psect	text29,global,reloc=2,class=CODE,delta=1
    42                           	psect	text30,global,reloc=2,class=CODE,delta=1
    43                           	psect	text31,global,reloc=2,class=CODE,delta=1
    44                           	psect	text32,global,reloc=2,class=CODE,delta=1
    45                           	psect	text33,global,reloc=2,class=CODE,delta=1
    46                           	psect	text34,global,reloc=2,class=CODE,delta=1
    47                           	psect	text35,global,reloc=2,class=CODE,delta=1
    48                           	psect	text36,global,reloc=2,class=CODE,delta=1
    49                           	psect	text37,global,reloc=2,class=CODE,delta=1
    50                           	psect	text38,global,reloc=2,class=CODE,delta=1
    51                           	psect	text39,global,reloc=2,class=CODE,delta=1
    52                           	psect	text40,global,reloc=2,class=CODE,delta=1
    53                           	psect	text41,global,reloc=2,class=CODE,delta=1
    54                           	psect	text42,global,reloc=2,class=CODE,delta=1
    55                           	psect	text43,global,reloc=2,class=CODE,delta=1
    56                           	psect	text44,global,reloc=2,class=CODE,delta=1
    57                           	psect	text45,global,reloc=2,class=CODE,delta=1
    58                           	psect	text46,global,reloc=2,class=CODE,delta=1
    59                           	psect	intsave_regs,global,class=BIGRAM,space=1,delta=1
    60                           	psect	rparam,global,class=COMRAM,space=1,delta=1
    61                           	psect	temp,global,ovrld,common,class=COMRAM,space=1,delta=1
    62                           	dabs	1,0x200,48,_BDT
    63                           	dabs	1,0x280,64,_cdc_data_rx
    64                           	dabs	1,0x240,64,_cdc_data_tx
    65                           	dabs	1,0x238,8,_CtrlTrfData
    66                           	dabs	1,0x230,8,_SetupPkt
    67  0000                     
    68                           	psect	smallconst
    69  000300                     __psmallconst:
    70                           	opt stack 0
    71  000300  00                 	db	0
    72  000301                     _dpowers:
    73                           	opt stack 0
    74  000301  0001               	dw	1
    75  000303  000A               	dw	10
    76  000305  0064               	dw	100
    77  000307  03E8               	dw	1000
    78  000309  2710               	dw	10000
    79  00030B                     __end_of_dpowers:
    80                           	opt stack 0
    81  00030B                     _USB_SD_Ptr:
    82                           	opt stack 0
    83  00030B  D0                 	db	low _sd000
    84  00030C  03                 	db	high _sd000
    85  00030D  56                 	db	low _sd001
    86  00030E  03                 	db	high _sd001
    87  00030F  8A                 	db	low _sd002
    88  000310  03                 	db	high _sd002
    89  000311                     __end_of_USB_SD_Ptr:
    90                           	opt stack 0
    91  000311                     _USB_CD_Ptr:
    92                           	opt stack 0
    93  000311  13                 	db	low _configDescriptor1
    94  000312  03                 	db	high _configDescriptor1
    95  000313                     __end_of_USB_CD_Ptr:
    96                           	opt stack 0
    97  000313                     _configDescriptor1:
    98                           	opt stack 0
    99  000313  09                 	db	9
   100  000314  02                 	db	2
   101  000315  43                 	db	67
   102  000316  00                 	db	0
   103  000317  02                 	db	2
   104  000318  01                 	db	1
   105  000319  00                 	db	0
   106  00031A  C0                 	db	192
   107  00031B  32                 	db	50
   108  00031C  09                 	db	9
   109  00031D  04                 	db	4
   110  00031E  00                 	db	0
   111  00031F  00                 	db	0
   112  000320  01                 	db	1
   113  000321  02                 	db	2
   114  000322  02                 	db	2
   115  000323  01                 	db	1
   116  000324  00                 	db	0
   117  000325  05                 	db	5
   118  000326  24                 	db	36
   119  000327  00                 	db	0
   120  000328  10                 	db	16
   121  000329  01                 	db	1
   122  00032A  04                 	db	4
   123  00032B  24                 	db	36
   124  00032C  02                 	db	2
   125  00032D  02                 	db	2
   126  00032E  05                 	db	5
   127  00032F  24                 	db	36
   128  000330  06                 	db	6
   129  000331  00                 	db	0
   130  000332  01                 	db	1
   131  000333  05                 	db	5
   132  000334  24                 	db	36
   133  000335  01                 	db	1
   134  000336  00                 	db	0
   135  000337  01                 	db	1
   136  000338  07                 	db	7
   137  000339  05                 	db	5
   138  00033A  81                 	db	129
   139  00033B  03                 	db	3
   140  00033C  08                 	db	8
   141  00033D  00                 	db	0
   142  00033E  02                 	db	2
   143  00033F  09                 	db	9
   144  000340  04                 	db	4
   145  000341  01                 	db	1
   146  000342  00                 	db	0
   147  000343  02                 	db	2
   148  000344  0A                 	db	10
   149  000345  00                 	db	0
   150  000346  00                 	db	0
   151  000347  00                 	db	0
   152  000348  07                 	db	7
   153  000349  05                 	db	5
   154  00034A  02                 	db	2
   155  00034B  02                 	db	2
   156  00034C  40                 	db	64
   157  00034D  00                 	db	0
   158  00034E  00                 	db	0
   159  00034F  07                 	db	7
   160  000350  05                 	db	5
   161  000351  82                 	db	130
   162  000352  02                 	db	2
   163  000353  40                 	db	64
   164  000354  00                 	db	0
   165  000355  00                 	db	0
   166  000356                     __end_of_configDescriptor1:
   167                           	opt stack 0
   168  000356                     _sd001:
   169                           	opt stack 0
   170  000356  34                 	db	52
   171  000357  03                 	db	3
   172  000358  004D               	dw	77
   173  00035A  0069               	dw	105
   174  00035C  0063               	dw	99
   175  00035E  0072               	dw	114
   176  000360  006F               	dw	111
   177  000362  0063               	dw	99
   178  000364  0068               	dw	104
   179  000366  0069               	dw	105
   180  000368  0070               	dw	112
   181  00036A  0020               	dw	32
   182  00036C  0054               	dw	84
   183  00036E  0065               	dw	101
   184  000370  0063               	dw	99
   185  000372  0068               	dw	104
   186  000374  006E               	dw	110
   187  000376  006F               	dw	111
   188  000378  006C               	dw	108
   189  00037A  006F               	dw	111
   190  00037C  0067               	dw	103
   191  00037E  0079               	dw	121
   192  000380  0020               	dw	32
   193  000382  0049               	dw	73
   194  000384  006E               	dw	110
   195  000386  0063               	dw	99
   196  000388  002E               	dw	46
   197  00038A                     __end_of_sd001:
   198                           	opt stack 0
   199  00038A                     _sd002:
   200                           	opt stack 0
   201  00038A  34                 	db	52
   202  00038B  03                 	db	3
   203  00038C  0043               	dw	67
   204  00038E  0044               	dw	68
   205  000390  0043               	dw	67
   206  000392  0020               	dw	32
   207  000394  0052               	dw	82
   208  000396  0053               	dw	83
   209  000398  002D               	dw	45
   210  00039A  0032               	dw	50
   211  00039C  0033               	dw	51
   212  00039E  0032               	dw	50
   213  0003A0  0020               	dw	32
   214  0003A2  0045               	dw	69
   215  0003A4  006D               	dw	109
   216  0003A6  0075               	dw	117
   217  0003A8  006C               	dw	108
   218  0003AA  0061               	dw	97
   219  0003AC  0074               	dw	116
   220  0003AE  0069               	dw	105
   221  0003B0  006F               	dw	111
   222  0003B2  006E               	dw	110
   223  0003B4  0020               	dw	32
   224  0003B6  0044               	dw	68
   225  0003B8  0065               	dw	101
   226  0003BA  006D               	dw	109
   227  0003BC  006F               	dw	111
   228  0003BE                     __end_of_sd002:
   229                           	opt stack 0
   230  0003BE                     _device_dsc:
   231                           	opt stack 0
   232  0003BE  12                 	db	18
   233  0003BF  01                 	db	1
   234  0003C0  0200               	dw	512
   235  0003C2  02                 	db	2
   236  0003C3  00                 	db	0
   237  0003C4  00                 	db	0
   238  0003C5  08                 	db	8
   239  0003C6  04D8               	dw	1240
   240  0003C8  000A               	dw	10
   241  0003CA  0100               	dw	256
   242  0003CC  01                 	db	1
   243  0003CD  02                 	db	2
   244  0003CE  00                 	db	0
   245  0003CF  01                 	db	1
   246  0003D0                     __end_of_device_dsc:
   247                           	opt stack 0
   248  0003D0                     _sd000:
   249                           	opt stack 0
   250  0003D0  04                 	db	4
   251  0003D1  03                 	db	3
   252  0003D2  0409               	dw	1033
   253  0003D4                     __end_of_sd000:
   254                           	opt stack 0
   255  0000                     _UADDR	set	3932
   256  0000                     _UEIE	set	3931
   257  0000                     _UEIR	set	3935
   258  0000                     _UEP0bits	set	3923
   259  0000                     _UEP0	set	3923
   260  0000                     _UEP1	set	3924
   261  0000                     _INTCONbits	set	4082
   262  0000                     _IPR2bits	set	4002
   263  0000                     _PIE2bits	set	4000
   264  0000                     _PIR2bits	set	4001
   265  0000                     _RCONbits	set	4048
   266  0000                     _UCFG	set	3937
   267  0000                     _UCON	set	3940
   268  0000                     _UCONbits	set	3940
   269  0000                     _UIE	set	3936
   270  0000                     _UIEbits	set	3936
   271  0000                     _UIR	set	3938
   272  0000                     _UIRbits	set	3938
   273  0000                     _USTAT	set	3939
   274  0003D4                     STR_2:
   275                           
   276                           ; BSR set to: 0
   277  0003D4  28                 	db	40
   278  0003D5  6E                 	db	110	;'n'
   279  0003D6  75                 	db	117	;'u'
   280  0003D7  6C                 	db	108	;'l'
   281  0003D8  6C                 	db	108	;'l'
   282  0003D9  29                 	db	41
   283  0003DA  00                 	db	0
   284  0003DB                     STR_1:
   285                           
   286                           ; BSR set to: 0
   287  0003DB  25                 	db	37
   288  0003DC  64                 	db	100	;'d'
   289  0003DD  3B                 	db	59	;';'
   290  0003DE  25                 	db	37
   291  0003DF  73                 	db	115	;'s'
   292  0003E0  0A                 	db	10
   293  0003E1  00                 	db	0
   294                           
   295                           ; #config settings
   296  0003E2  00                 	db	0	; dummy byte at the end
   297  0000                     
   298                           	psect	cinit
   299  001FAC                     __pcinit:
   300                           	opt stack 0
   301  001FAC                     start_initialization:
   302                           	opt stack 0
   303  001FAC                     __initialization:
   304                           	opt stack 0
   305                           
   306                           ; Clear objects allocated to BANK0 (62 bytes)
   307  001FAC  EE00  F0C0         	lfsr	0,__pbssBANK0
   308  001FB0  0E3E               	movlw	62
   309  001FB2                     clear_0:
   310  001FB2  6AEE               	clrf	postinc0,c
   311  001FB4  06E8               	decf	wreg,f,c
   312  001FB6  E1FD               	bnz	clear_0
   313                           
   314                           ; Clear objects allocated to COMRAM (42 bytes)
   315  001FB8  EE00  F001         	lfsr	0,__pbssCOMRAM
   316  001FBC  0E2A               	movlw	42
   317  001FBE                     clear_1:
   318  001FBE  6AEE               	clrf	postinc0,c
   319  001FC0  06E8               	decf	wreg,f,c
   320  001FC2  E1FD               	bnz	clear_1
   321  001FC4                     end_of_initialization:
   322                           	opt stack 0
   323  001FC4                     __end_of__initialization:
   324                           	opt stack 0
   325  001FC4  9055               	bcf	int$flags,0,c	;clear compiler interrupt flag (level 1)
   326  001FC6  9255               	bcf	int$flags,1,c	;clear compiler interrupt flag (level 2)
   327  001FC8  0E00               	movlw	low (__Lmediumconst shr (0+16))
   328  001FCA  6EF8               	movwf	tblptru,c
   329  001FCC  0100               	movlb	0
   330  001FCE  EFC7  F00C         	goto	_main	;jump to C main() function
   331                           tblptru	equ	0xFF8
   332                           postinc0	equ	0xFEE
   333                           wreg	equ	0xFE8
   334                           
   335                           	psect	bssCOMRAM
   336  000001                     __pbssCOMRAM:
   337                           	opt stack 0
   338  000001                     _outPipes:
   339                           	opt stack 0
   340  000001                     	ds	8
   341  000009                     _inPipes:
   342                           	opt stack 0
   343  000009                     	ds	6
   344  00000F                     _pBDTEntryIn:
   345                           	opt stack 0
   346  00000F                     	ds	6
   347  000015                     _CDCDataOutHandle:
   348                           	opt stack 0
   349  000015                     	ds	2
   350  000017                     _pBDTEntryEP0OutCurrent:
   351                           	opt stack 0
   352  000017                     	ds	2
   353  000019                     _pBDTEntryEP0OutNext:
   354                           	opt stack 0
   355  000019                     	ds	2
   356  00001B                     _BothEP0OutUOWNsSet:
   357                           	opt stack 0
   358  00001B                     	ds	1
   359  00001C                     _RemoteWakeup:
   360                           	opt stack 0
   361  00001C                     	ds	1
   362  00001D                     _USBBusIsSuspended:
   363                           	opt stack 0
   364  00001D                     	ds	1
   365  00001E                     _USBDeferStatusStagePacket:
   366                           	opt stack 0
   367  00001E                     	ds	1
   368  00001F                     _USBDeviceState:
   369                           	opt stack 0
   370  00001F                     	ds	1
   371  000020                     _USBStatusStageEnabledFlag1:
   372                           	opt stack 0
   373  000020                     	ds	1
   374  000021                     _USBStatusStageEnabledFlag2:
   375                           	opt stack 0
   376  000021                     	ds	1
   377  000022                     _USBStatusStageTimeoutCounter:
   378                           	opt stack 0
   379  000022                     	ds	1
   380  000023                     _cdc_rx_len:
   381                           	opt stack 0
   382  000023                     	ds	1
   383  000024                     _cdc_trf_state:
   384                           	opt stack 0
   385  000024                     	ds	1
   386  000025                     _cdc_tx_len:
   387                           	opt stack 0
   388  000025                     	ds	1
   389  000026                     _controlTransferState:
   390                           	opt stack 0
   391  000026                     	ds	1
   392  000027                     _endpoint_number:
   393                           	opt stack 0
   394  000027                     	ds	1
   395  000028                     _shortPacketStatus:
   396                           	opt stack 0
   397  000028                     	ds	1
   398  000029                     _USBActiveConfiguration:
   399                           	opt stack 0
   400  000029                     	ds	1
   401  00002A                     _USTATcopy:
   402                           	opt stack 0
   403  00002A                     	ds	1
   404                           tblptru	equ	0xFF8
   405                           postinc0	equ	0xFEE
   406                           wreg	equ	0xFE8
   407                           
   408                           	psect	bssBANK0
   409  0000C0                     __pbssBANK0:
   410                           	opt stack 0
   411  0000C0                     _cdc_notice:
   412                           	opt stack 0
   413  0000C0                     	ds	10
   414  0000CA                     _pBDTEntryOut:
   415                           	opt stack 0
   416  0000CA                     	ds	6
   417  0000D0                     _BaudRateGen:
   418                           	opt stack 0
   419  0000D0                     	ds	4
   420  0000D4                     _USB1msTickCount:
   421                           	opt stack 0
   422  0000D4                     	ds	4
   423  0000D8                     _ep_data_in:
   424                           	opt stack 0
   425  0000D8                     	ds	3
   426  0000DB                     _ep_data_out:
   427                           	opt stack 0
   428  0000DB                     	ds	3
   429  0000DE                     _pCDCDst:
   430                           	opt stack 0
   431  0000DE                     	ds	3
   432  0000E1                     _pCDCSrc:
   433                           	opt stack 0
   434  0000E1                     	ds	3
   435  0000E4                     _CDCDataInHandle:
   436                           	opt stack 0
   437  0000E4                     	ds	2
   438  0000E6                     _pDst:
   439                           	opt stack 0
   440  0000E6                     	ds	2
   441  0000E8                     _USBDeferINDataStagePackets:
   442                           	opt stack 0
   443  0000E8                     	ds	1
   444  0000E9                     _USBDeferOUTDataStagePackets:
   445                           	opt stack 0
   446  0000E9                     	ds	1
   447  0000EA                     _USBTicksSinceSuspendEnd:
   448                           	opt stack 0
   449  0000EA                     	ds	1
   450  0000EB                     _cdc_mem_type:
   451                           	opt stack 0
   452  0000EB                     	ds	1
   453  0000EC                     _control_signal_bitmap:
   454                           	opt stack 0
   455  0000EC                     	ds	1
   456  0000ED                     _dummy_encapsulated_cmd_response:
   457                           	opt stack 0
   458  0000ED                     	ds	8
   459  0000F5                     _line_coding:
   460                           	opt stack 0
   461  0000F5                     	ds	7
   462  0000FC                     _USBAlternateInterface:
   463                           	opt stack 0
   464  0000FC                     	ds	2
   465                           tblptru	equ	0xFF8
   466                           postinc0	equ	0xFEE
   467                           wreg	equ	0xFE8
   468                           
   469                           	psect	cstackBANK1
   470  000100                     __pcstackBANK1:
   471                           	opt stack 0
   472  000100                     main@text:
   473                           	opt stack 0
   474                           
   475                           ; 256 bytes @ 0x0
   476  000100                     	ds	256
   477                           tblptru	equ	0xFF8
   478                           postinc0	equ	0xFEE
   479                           wreg	equ	0xFE8
   480                           
   481                           	psect	cstackBANK0
   482  000060                     __pcstackBANK0:
   483                           	opt stack 0
   484  000060                     ?_USBTransferOnePacket:
   485                           	opt stack 0
   486  000060                     ?___lwdiv:
   487                           	opt stack 0
   488  000060                     SYSTEM_Initialize@state:
   489                           	opt stack 0
   490  000060                     USBTransferOnePacket@dir:
   491                           	opt stack 0
   492  000060                     putsUSBUSART@data:
   493                           	opt stack 0
   494  000060                     ___lwdiv@dividend:
   495                           	opt stack 0
   496  000060                     memset@p1:
   497                           	opt stack 0
   498                           
   499                           ; 2 bytes @ 0x0
   500  000060                     	ds	1
   501  000061                     USBTransferOnePacket@data:
   502                           	opt stack 0
   503                           
   504                           ; 2 bytes @ 0x1
   505  000061                     	ds	1
   506  000062                     putsUSBUSART@pData:
   507                           	opt stack 0
   508  000062                     ___lwdiv@divisor:
   509                           	opt stack 0
   510  000062                     memset@c:
   511                           	opt stack 0
   512                           
   513                           ; 2 bytes @ 0x2
   514  000062                     	ds	1
   515  000063                     USBTransferOnePacket@len:
   516                           	opt stack 0
   517                           
   518                           ; 1 bytes @ 0x3
   519  000063                     	ds	1
   520  000064                     USBTransferOnePacket@ep:
   521                           	opt stack 0
   522  000064                     putsUSBUSART@len:
   523                           	opt stack 0
   524  000064                     ___lwdiv@counter:
   525                           	opt stack 0
   526  000064                     memset@n:
   527                           	opt stack 0
   528                           
   529                           ; 2 bytes @ 0x4
   530  000064                     	ds	1
   531  000065                     USBTransferOnePacket@handle:
   532                           	opt stack 0
   533  000065                     ___lwdiv@quotient:
   534                           	opt stack 0
   535                           
   536                           ; 2 bytes @ 0x5
   537  000065                     	ds	1
   538  000066                     memset@p:
   539                           	opt stack 0
   540                           
   541                           ; 2 bytes @ 0x6
   542  000066                     	ds	1
   543  000067                     ?___lwmod:
   544                           	opt stack 0
   545  000067                     CDCTxService@i:
   546                           	opt stack 0
   547  000067                     getsUSBUSART@buffer:
   548                           	opt stack 0
   549  000067                     ___lwmod@dividend:
   550                           	opt stack 0
   551                           
   552                           ; 2 bytes @ 0x7
   553  000067                     	ds	1
   554  000068                     USBDeviceInit@i:
   555                           	opt stack 0
   556  000068                     CDCTxService@byte_to_send:
   557                           	opt stack 0
   558                           
   559                           ; 1 bytes @ 0x8
   560  000068                     	ds	1
   561  000069                     ?_update:
   562                           	opt stack 0
   563  000069                     getsUSBUSART@len:
   564                           	opt stack 0
   565  000069                     cdcPuts@data:
   566                           	opt stack 0
   567  000069                     ___lwmod@divisor:
   568                           	opt stack 0
   569                           
   570                           ; 2 bytes @ 0x9
   571  000069                     	ds	1
   572  00006A                     
   573                           ; 0 bytes @ 0xA
   574  00006A                     	ds	1
   575  00006B                     ?_cdcGets:
   576                           	opt stack 0
   577  00006B                     ___lwmod@counter:
   578                           	opt stack 0
   579  00006B                     cdcGets@data:
   580                           	opt stack 0
   581                           
   582                           ; 2 bytes @ 0xB
   583  00006B                     	ds	1
   584  00006C                     ?_sprintf:
   585                           	opt stack 0
   586  00006C                     sprintf@sp:
   587                           	opt stack 0
   588                           
   589                           ; 2 bytes @ 0xC
   590  00006C                     	ds	1
   591  00006D                     cdcGets@length:
   592                           	opt stack 0
   593                           
   594                           ; 2 bytes @ 0xD
   595  00006D                     	ds	1
   596  00006E                     sprintf@f:
   597                           	opt stack 0
   598                           
   599                           ; 2 bytes @ 0xE
   600  00006E                     	ds	1
   601  00006F                     ??_cdcGets:
   602                           
   603                           ; 0 bytes @ 0xF
   604  00006F                     	ds	5
   605  000074                     ??_sprintf:
   606                           
   607                           ; 0 bytes @ 0x14
   608  000074                     	ds	1
   609  000075                     sprintf@flag:
   610                           	opt stack 0
   611                           
   612                           ; 1 bytes @ 0x15
   613  000075                     	ds	1
   614  000076                     sprintf@prec:
   615                           	opt stack 0
   616                           
   617                           ; 1 bytes @ 0x16
   618  000076                     	ds	1
   619  000077                     sprintf@ap:
   620                           	opt stack 0
   621                           
   622                           ; 2 bytes @ 0x17
   623  000077                     	ds	2
   624  000079                     sprintf@cp:
   625                           	opt stack 0
   626                           
   627                           ; 2 bytes @ 0x19
   628  000079                     	ds	2
   629  00007B                     sprintf@val:
   630                           	opt stack 0
   631                           
   632                           ; 2 bytes @ 0x1B
   633  00007B                     	ds	2
   634  00007D                     sprintf@c:
   635                           	opt stack 0
   636                           
   637                           ; 1 bytes @ 0x1D
   638  00007D                     	ds	1
   639  00007E                     main@buff:
   640                           	opt stack 0
   641                           
   642                           ; 64 bytes @ 0x1E
   643  00007E                     	ds	64
   644  0000BE                     main@length:
   645                           	opt stack 0
   646                           
   647                           ; 2 bytes @ 0x5E
   648  0000BE                     	ds	2
   649                           tblptru	equ	0xFF8
   650                           postinc0	equ	0xFEE
   651                           wreg	equ	0xFE8
   652                           
   653                           	psect	cstackCOMRAM
   654  00002B                     __pcstackCOMRAM:
   655                           	opt stack 0
   656  00002B                     ??_USBStdGetDscHandler:
   657  00002B                     ??_USBStdGetStatusHandler:
   658  00002B                     ?i2_USBTransferOnePacket:
   659                           	opt stack 0
   660  00002B                     USBConfigureEndpoint@direction:
   661                           	opt stack 0
   662  00002B                     USBCtrlTrfTxService@byteToSend:
   663                           	opt stack 0
   664  00002B                     USBCtrlTrfRxService@i:
   665                           	opt stack 0
   666  00002B                     i2SYSTEM_Initialize@state:
   667                           	opt stack 0
   668  00002B                     i2USBTransferOnePacket@dir:
   669                           	opt stack 0
   670  00002B                     memcpy@d1:
   671                           	opt stack 0
   672  00002B                     i2memset@p1:
   673                           	opt stack 0
   674                           
   675                           ; 2 bytes @ 0x0
   676  00002B                     	ds	1
   677  00002C                     ??_USBConfigureEndpoint:
   678  00002C                     USBCtrlTrfRxService@byteToRead:
   679                           	opt stack 0
   680  00002C                     USBCtrlTrfInHandler@lastDTS:
   681                           	opt stack 0
   682  00002C                     USBStdGetStatusHandler@p:
   683                           	opt stack 0
   684  00002C                     i2USBTransferOnePacket@data:
   685                           	opt stack 0
   686                           
   687                           ; 2 bytes @ 0x1
   688  00002C                     	ds	1
   689  00002D                     memcpy@s1:
   690                           	opt stack 0
   691  00002D                     i2memset@c:
   692                           	opt stack 0
   693                           
   694                           ; 2 bytes @ 0x2
   695  00002D                     	ds	1
   696  00002E                     i2USBTransferOnePacket@len:
   697                           	opt stack 0
   698                           
   699                           ; 1 bytes @ 0x3
   700  00002E                     	ds	1
   701  00002F                     i2USBTransferOnePacket@ep:
   702                           	opt stack 0
   703  00002F                     memcpy@n:
   704                           	opt stack 0
   705  00002F                     i2memset@n:
   706                           	opt stack 0
   707                           
   708                           ; 2 bytes @ 0x4
   709  00002F                     	ds	1
   710  000030                     USBConfigureEndpoint@EPNum:
   711                           	opt stack 0
   712  000030                     i2USBTransferOnePacket@handle:
   713                           	opt stack 0
   714                           
   715                           ; 2 bytes @ 0x5
   716  000030                     	ds	1
   717  000031                     USBConfigureEndpoint@handle:
   718                           	opt stack 0
   719  000031                     memcpy@d:
   720                           	opt stack 0
   721  000031                     i2memset@p:
   722                           	opt stack 0
   723                           
   724                           ; 2 bytes @ 0x6
   725  000031                     	ds	2
   726  000033                     USBEnableEndpoint@options:
   727                           	opt stack 0
   728  000033                     i2USBDeviceInit@i:
   729                           	opt stack 0
   730  000033                     memcpy@s:
   731                           	opt stack 0
   732                           
   733                           ; 2 bytes @ 0x8
   734  000033                     	ds	1
   735  000034                     USBEnableEndpoint@p:
   736                           	opt stack 0
   737                           
   738                           ; 2 bytes @ 0x9
   739  000034                     	ds	2
   740  000036                     USBEnableEndpoint@ep:
   741                           	opt stack 0
   742                           
   743                           ; 1 bytes @ 0xB
   744  000036                     	ds	1
   745  000037                     USER_USB_CALLBACK_EVENT_HANDLER@event:
   746                           	opt stack 0
   747                           
   748                           ; 2 bytes @ 0xC
   749  000037                     	ds	2
   750  000039                     USER_USB_CALLBACK_EVENT_HANDLER@pdata:
   751                           	opt stack 0
   752                           
   753                           ; 2 bytes @ 0xE
   754  000039                     	ds	2
   755  00003B                     USER_USB_CALLBACK_EVENT_HANDLER@size:
   756                           	opt stack 0
   757                           
   758                           ; 2 bytes @ 0x10
   759  00003B                     	ds	2
   760  00003D                     ??_USER_USB_CALLBACK_EVENT_HANDLER:
   761                           
   762                           ; 0 bytes @ 0x12
   763  00003D                     	ds	2
   764  00003F                     ??_USBStdFeatureReqHandler:
   765  00003F                     USBStdSetCfgHandler@i:
   766                           	opt stack 0
   767                           
   768                           ; 1 bytes @ 0x14
   769  00003F                     	ds	1
   770  000040                     USBStdFeatureReqHandler@pUEP:
   771                           	opt stack 0
   772                           
   773                           ; 2 bytes @ 0x15
   774  000040                     	ds	2
   775  000042                     USBStdFeatureReqHandler@current_ep_data:
   776                           	opt stack 0
   777                           
   778                           ; 1 bytes @ 0x17
   779  000042                     	ds	1
   780  000043                     USBStdFeatureReqHandler@p:
   781                           	opt stack 0
   782                           
   783                           ; 2 bytes @ 0x18
   784  000043                     	ds	2
   785  000045                     ??_USBCtrlEPService:
   786  000045                     
   787                           ; 0 bytes @ 0x1A
   788  000045                     	ds	1
   789  000046                     USBDeviceTasks@i:
   790                           	opt stack 0
   791                           
   792                           ; 1 bytes @ 0x1B
   793  000046                     	ds	1
   794  000047                     ??_SYS_InterruptHigh:
   795                           
   796                           ; 0 bytes @ 0x1C
   797  000047                     	ds	14
   798                           tblptru	equ	0xFF8
   799                           postinc0	equ	0xFEE
   800                           wreg	equ	0xFE8
   801                           
   802 ;;
   803 ;;Main: autosize = 0, tempsize = 0, incstack = 0, save=0
   804 ;;
   805 ;; *************** function _main *****************
   806 ;; Defined at:
   807 ;;		line 5 in file "main.c"
   808 ;; Parameters:    Size  Location     Type
   809 ;;		None
   810 ;; Auto vars:     Size  Location     Type
   811 ;;  text          256    0[BANK1 ] unsigned char [256]
   812 ;;  buff           64   30[BANK0 ] unsigned char [64]
   813 ;;  length          2   94[BANK0 ] int 
   814 ;; Return value:  Size  Location     Type
   815 ;;		None               void
   816 ;; Registers used:
   817 ;;		wreg, fsr1l, fsr1h, fsr2l, fsr2h, status,2, status,0, tblptrl, tblptrh, tblptru, prodl, prodh, cstack
   818 ;; Tracked objects:
   819 ;;		On entry : 0/0
   820 ;;		On exit  : 0/0
   821 ;;		Unchanged: 0/0
   822 ;; Data sizes:     COMRAM   BANK0   BANK1   BANK2
   823 ;;      Params:         0       0       0       0
   824 ;;      Locals:         0      66     256       0
   825 ;;      Temps:          0       0       0       0
   826 ;;      Totals:         0      66     256       0
   827 ;;Total ram usage:      322 bytes
   828 ;; Hardware stack levels required when called:   14
   829 ;; This function calls:
   830 ;;		_cdcGets
   831 ;;		_cdcPuts
   832 ;;		_sprintf
   833 ;;		_systemInit
   834 ;;		_update
   835 ;; This function is called by:
   836 ;;		Startup code after reset
   837 ;; This function uses a non-reentrant model
   838 ;;
   839                           
   840                           	psect	text0
   841  00198E                     __ptext0:
   842                           	opt stack 0
   843  00198E                     _main:
   844                           	opt stack 17
   845                           
   846                           ;main.c: 7: unsigned char buff[64];
   847                           ;main.c: 8: unsigned char text[256];
   848                           ;main.c: 9: int length;
   849                           ;main.c: 12: systemInit();
   850                           
   851                           ; BSR set to: 0
   852                           ;incstack = 0
   853  00198E  EC2C  F010         	call	_systemInit	;wreg free
   854                           
   855                           ;main.c: 14: while(update()){
   856  001992  D03B               	goto	l4602
   857  001994                     l4594:
   858                           
   859                           ;main.c: 15: length=cdcGets(buff,sizeof(buff));
   860  001994  0E7E               	movlw	low main@buff
   861  001996  0100               	movlb	0	; () banked
   862  001998  6F6B               	movwf	cdcGets@data& (0+255),b
   863  00199A  0E00               	movlw	high main@buff
   864  00199C  0100               	movlb	0	; () banked
   865  00199E  6F6C               	movwf	(cdcGets@data+1)& (0+255),b
   866  0019A0  0E00               	movlw	0
   867  0019A2  0100               	movlb	0	; () banked
   868  0019A4  6F6E               	movwf	(cdcGets@length+1)& (0+255),b
   869  0019A6  0E40               	movlw	64
   870  0019A8  6F6D               	movwf	cdcGets@length& (0+255),b
   871  0019AA  EC7B  F00F         	call	_cdcGets	;wreg free
   872  0019AE  C06B  F0BE         	movff	?_cdcGets,main@length
   873  0019B2  C06C  F0BF         	movff	?_cdcGets+1,main@length+1
   874                           
   875                           ;main.c: 16: if(length>0){
   876  0019B6  0100               	movlb	0	; () banked
   877  0019B8  BFBF               	btfsc	(main@length+1)& (0+255),7,b
   878  0019BA  D027               	goto	l4602
   879  0019BC  0100               	movlb	0	; () banked
   880  0019BE  51BF               	movf	(main@length+1)& (0+255),w,b
   881  0019C0  E104               	bnz	u4150
   882  0019C2  0100               	movlb	0	; () banked
   883  0019C4  05BE               	decf	main@length& (0+255),w,b
   884  0019C6  A0D8               	btfss	status,0,c
   885  0019C8  D020               	goto	l4602
   886  0019CA                     u4150:
   887                           
   888                           ; BSR set to: 0
   889                           ;main.c: 17: sprintf(text, "%d;%s\n",length,buff);
   890  0019CA  0E00               	movlw	low main@text
   891  0019CC  0100               	movlb	0	; () banked
   892  0019CE  6F6C               	movwf	sprintf@sp& (0+255),b
   893  0019D0  0E01               	movlw	high main@text
   894  0019D2  0100               	movlb	0	; () banked
   895  0019D4  6F6D               	movwf	(sprintf@sp+1)& (0+255),b
   896  0019D6  0EDB               	movlw	low STR_1
   897  0019D8  0100               	movlb	0	; () banked
   898  0019DA  6F6E               	movwf	sprintf@f& (0+255),b
   899  0019DC  0E03               	movlw	high STR_1
   900  0019DE  0100               	movlb	0	; () banked
   901  0019E0  6F6F               	movwf	(sprintf@f+1)& (0+255),b
   902  0019E2  C0BE  F070         	movff	main@length,?_sprintf+4
   903  0019E6  C0BF  F071         	movff	main@length+1,?_sprintf+5
   904  0019EA  0E7E               	movlw	low main@buff
   905  0019EC  0100               	movlb	0	; () banked
   906  0019EE  6F72               	movwf	(?_sprintf+6)& (0+255),b
   907  0019F0  0E00               	movlw	high main@buff
   908  0019F2  0100               	movlb	0	; () banked
   909  0019F4  6F73               	movwf	(?_sprintf+7)& (0+255),b
   910  0019F6  EC32  F003         	call	_sprintf	;wreg free
   911                           
   912                           ;main.c: 18: cdcPuts(text);
   913  0019FA  0E00               	movlw	low main@text
   914  0019FC  0100               	movlb	0	; () banked
   915  0019FE  6F69               	movwf	cdcPuts@data& (0+255),b
   916  001A00  0E01               	movlw	high main@text
   917  001A02  0100               	movlb	0	; () banked
   918  001A04  6F6A               	movwf	(cdcPuts@data+1)& (0+255),b
   919  001A06  EC16  F010         	call	_cdcPuts	;wreg free
   920  001A0A                     l4602:
   921  001A0A  ECFC  F00F         	call	_update	;wreg free
   922  001A0E  0100               	movlb	0	; () banked
   923  001A10  5169               	movf	?_update& (0+255),w,b
   924  001A12  0100               	movlb	0	; () banked
   925  001A14  116A               	iorwf	(?_update+1)& (0+255),w,b
   926  001A16  B4D8               	btfsc	status,2,c
   927  001A18  EF41  F000         	goto	start
   928  001A1C  D7BB               	goto	l4594
   929  001A1E                     __end_of_main:
   930                           	opt stack 0
   931                           tblptru	equ	0xFF8
   932                           postinc0	equ	0xFEE
   933                           wreg	equ	0xFE8
   934                           status	equ	0xFD8
   935                           
   936 ;; *************** function _update *****************
   937 ;; Defined at:
   938 ;;		line 17 in file "CDCLib/cdc.c"
   939 ;; Parameters:    Size  Location     Type
   940 ;;		None
   941 ;; Auto vars:     Size  Location     Type
   942 ;;		None
   943 ;; Return value:  Size  Location     Type
   944 ;;                  2    9[BANK0 ] int 
   945 ;; Registers used:
   946 ;;		wreg, fsr1l, fsr1h, fsr2l, fsr2h, status,2, status,0, prodl, prodh, cstack
   947 ;; Tracked objects:
   948 ;;		On entry : 0/0
   949 ;;		On exit  : 0/0
   950 ;;		Unchanged: 0/0
   951 ;; Data sizes:     COMRAM   BANK0   BANK1   BANK2
   952 ;;      Params:         0       2       0       0
   953 ;;      Locals:         0       0       0       0
   954 ;;      Temps:          0       0       0       0
   955 ;;      Totals:         0       2       0       0
   956 ;;Total ram usage:        2 bytes
   957 ;; Hardware stack levels used:    1
   958 ;; Hardware stack levels required when called:   13
   959 ;; This function calls:
   960 ;;		_CDCTxService
   961 ;; This function is called by:
   962 ;;		_main
   963 ;; This function uses a non-reentrant model
   964 ;;
   965                           
   966                           	psect	text1
   967  001FF8                     __ptext1:
   968                           	opt stack 0
   969  001FF8                     _update:
   970                           	opt stack 17
   971                           
   972                           ;cdc.c: 19: CDCTxService();
   973                           
   974                           ; BSR set to: 0
   975                           ;incstack = 0
   976  001FF8  EC9F  F005         	call	_CDCTxService	;wreg free
   977  001FFC                     l4472:
   978                           
   979                           ;cdc.c: 21: {
   980                           ;cdc.c: 22: ;
   981                           ;cdc.c: 24: if(USBDeviceState<CONFIGURED_STATE){
   982  001FFC  0E20               	movlw	32
   983  001FFE  601F               	cpfslt	_USBDeviceState,c	;volatile
   984  002000  D001               	goto	l579
   985  002002  D7FC               	goto	l4472
   986  002004                     l579:
   987                           
   988                           ;cdc.c: 26: }
   989                           ;cdc.c: 27: if(UCONbits.SUSPND==1){
   990  002004  B264               	btfsc	3940,1,c	;volatile
   991  002006  D7FA               	goto	l4472
   992                           
   993                           ;cdc.c: 31: }
   994                           ;cdc.c: 32: return 1;
   995                           
   996                           ;cdc.c: 29: }
   997                           ;cdc.c: 30: break;
   998                           
   999                           ;cdc.c: 28: continue;
  1000  002008  0E00               	movlw	0
  1001  00200A  0100               	movlb	0	; () banked
  1002  00200C  6F6A               	movwf	(?_update+1)& (0+255),b
  1003  00200E  0E01               	movlw	1
  1004  002010  6F69               	movwf	?_update& (0+255),b
  1005  002012  0012               	return	
  1006  002014                     __end_of_update:
  1007                           	opt stack 0
  1008                           tblptru	equ	0xFF8
  1009                           postinc0	equ	0xFEE
  1010                           wreg	equ	0xFE8
  1011                           status	equ	0xFD8
  1012                           
  1013 ;; *************** function _systemInit *****************
  1014 ;; Defined at:
  1015 ;;		line 11 in file "CDCLib/cdc.c"
  1016 ;; Parameters:    Size  Location     Type
  1017 ;;		None
  1018 ;; Auto vars:     Size  Location     Type
  1019 ;;		None
  1020 ;; Return value:  Size  Location     Type
  1021 ;;		None               void
  1022 ;; Registers used:
  1023 ;;		wreg, fsr2l, fsr2h, status,2, status,0, prodl, prodh, cstack
  1024 ;; Tracked objects:
  1025 ;;		On entry : 0/0
  1026 ;;		On exit  : 0/0
  1027 ;;		Unchanged: 0/0
  1028 ;; Data sizes:     COMRAM   BANK0   BANK1   BANK2
  1029 ;;      Params:         0       0       0       0
  1030 ;;      Locals:         0       0       0       0
  1031 ;;      Temps:          0       0       0       0
  1032 ;;      Totals:         0       0       0       0
  1033 ;;Total ram usage:        0 bytes
  1034 ;; Hardware stack levels used:    1
  1035 ;; Hardware stack levels required when called:   13
  1036 ;; This function calls:
  1037 ;;		_SYSTEM_Initialize
  1038 ;;		_USBDeviceAttach
  1039 ;;		_USBDeviceInit
  1040 ;; This function is called by:
  1041 ;;		_main
  1042 ;; This function uses a non-reentrant model
  1043 ;;
  1044                           
  1045                           	psect	text2
  1046  002058                     __ptext2:
  1047                           	opt stack 0
  1048  002058                     _systemInit:
  1049                           	opt stack 17
  1050                           
  1051                           ;cdc.c: 13: SYSTEM_Initialize(SYSTEM_STATE_USB_START);
  1052                           
  1053                           ; BSR set to: 0
  1054                           ;incstack = 0
  1055  002058  0E00               	movlw	0
  1056  00205A  EC0A  F010         	call	_SYSTEM_Initialize
  1057                           
  1058                           ;cdc.c: 14: USBDeviceInit();
  1059  00205E  EC40  F004         	call	_USBDeviceInit	;wreg free
  1060                           
  1061                           ;cdc.c: 15: USBDeviceAttach();
  1062  002062  EC62  F00F         	call	_USBDeviceAttach	;wreg free
  1063  002066  0012               	return		;funcret
  1064  002068                     __end_of_systemInit:
  1065                           	opt stack 0
  1066                           tblptru	equ	0xFF8
  1067                           postinc0	equ	0xFEE
  1068                           wreg	equ	0xFE8
  1069                           status	equ	0xFD8
  1070                           
  1071 ;; *************** function _USBDeviceInit *****************
  1072 ;; Defined at:
  1073 ;;		line 295 in file "CDCLib/usb_device.c"
  1074 ;; Parameters:    Size  Location     Type
  1075 ;;		None
  1076 ;; Auto vars:     Size  Location     Type
  1077 ;;  i               1    8[BANK0 ] unsigned char 
  1078 ;; Return value:  Size  Location     Type
  1079 ;;		None               void
  1080 ;; Registers used:
  1081 ;;		wreg, fsr2l, fsr2h, status,2, status,0, prodl, prodh, cstack
  1082 ;; Tracked objects:
  1083 ;;		On entry : 0/0
  1084 ;;		On exit  : 0/0
  1085 ;;		Unchanged: 0/0
  1086 ;; Data sizes:     COMRAM   BANK0   BANK1   BANK2
  1087 ;;      Params:         0       0       0       0
  1088 ;;      Locals:         0       1       0       0
  1089 ;;      Temps:          0       0       0       0
  1090 ;;      Totals:         0       1       0       0
  1091 ;;Total ram usage:        1 bytes
  1092 ;; Hardware stack levels used:    1
  1093 ;; Hardware stack levels required when called:   12
  1094 ;; This function calls:
  1095 ;;		_memset
  1096 ;; This function is called by:
  1097 ;;		_systemInit
  1098 ;; This function uses a non-reentrant model
  1099 ;;
  1100                           
  1101                           	psect	text3
  1102  000880                     __ptext3:
  1103                           	opt stack 0
  1104  000880                     _USBDeviceInit:
  1105                           	opt stack 17
  1106                           
  1107                           ;usb_device.c: 297: uint8_t i;
  1108                           ;usb_device.c: 299: {PIE2bits.USBIE = 0;};
  1109                           
  1110                           ;incstack = 0
  1111  000880  94A0               	bcf	4000,2,c	;volatile
  1112                           
  1113                           ;usb_device.c: 303: ;
  1114                           ;usb_device.c: 306: {UEIR = 0;};
  1115  000882  0E00               	movlw	0
  1116  000884  010F               	movlb	15	; () banked
  1117  000886  6F5F               	movwf	95,b	;volatile
  1118                           
  1119                           ;usb_device.c: 309: {UIR = 0;};
  1120  000888  0E00               	movlw	0
  1121  00088A  6E62               	movwf	3938,c	;volatile
  1122                           
  1123                           ;usb_device.c: 312: UEP0 = 0;
  1124  00088C  0E00               	movlw	0
  1125  00088E  010F               	movlb	15	; () banked
  1126  000890  6F53               	movwf	83,b	;volatile
  1127                           
  1128                           ; BSR set to: 15
  1129                           ;usb_device.c: 314: memset((void*)&UEP1,0x00,(2));;
  1130  000892  0E54               	movlw	84
  1131  000894  0100               	movlb	0	; () banked
  1132  000896  6F60               	movwf	memset@p1& (0+255),b
  1133  000898  0E0F               	movlw	15
  1134  00089A  0100               	movlb	0	; () banked
  1135  00089C  6F61               	movwf	(memset@p1+1)& (0+255),b
  1136  00089E  0E00               	movlw	0
  1137  0008A0  0100               	movlb	0	; () banked
  1138  0008A2  6F63               	movwf	(memset@c+1)& (0+255),b
  1139  0008A4  0E00               	movlw	0
  1140  0008A6  6F62               	movwf	memset@c& (0+255),b
  1141  0008A8  0E00               	movlw	0
  1142  0008AA  0100               	movlb	0	; () banked
  1143  0008AC  6F65               	movwf	(memset@n+1)& (0+255),b
  1144  0008AE  0E02               	movlw	2
  1145  0008B0  6F64               	movwf	memset@n& (0+255),b
  1146  0008B2  EC2E  F00F         	call	_memset	;wreg free
  1147                           
  1148                           ;usb_device.c: 316: { UCFG = 0x10 | 0x00 | 0x04 | 0x02; UEIE = 0x9F; UIE = 0x39 | 0x40 |
      +                           0x02; };
  1149  0008B6  0E16               	movlw	22
  1150  0008B8  6E61               	movwf	3937,c	;volatile
  1151  0008BA  0E9F               	movlw	159
  1152  0008BC  010F               	movlb	15	; () banked
  1153  0008BE  6F5B               	movwf	91,b	;volatile
  1154                           
  1155                           ; BSR set to: 15
  1156  0008C0  0E7B               	movlw	123
  1157  0008C2  6E60               	movwf	3936,c	;volatile
  1158                           
  1159                           ; BSR set to: 15
  1160                           ;usb_device.c: 319: ;
  1161                           ;usb_device.c: 322: ;
  1162                           ;usb_device.c: 325: for(i = 0; i < (sizeof(BDT)/sizeof(BDT_ENTRY)); i++)
  1163  0008C4  0E00               	movlw	0
  1164  0008C6  0100               	movlb	0	; () banked
  1165  0008C8  6F68               	movwf	USBDeviceInit@i& (0+255),b
  1166  0008CA                     l4236:
  1167                           
  1168                           ; BSR set to: 0
  1169  0008CA  0E0B               	movlw	11
  1170  0008CC  0100               	movlb	0	; () banked
  1171  0008CE  6568               	cpfsgt	USBDeviceInit@i& (0+255),b
  1172  0008D0  D001               	goto	l4240
  1173  0008D2  D010               	goto	l167
  1174  0008D4                     l4240:
  1175                           
  1176                           ; BSR set to: 0
  1177                           ;usb_device.c: 326: {
  1178                           ;usb_device.c: 327: BDT[i].Val = 0x00;
  1179  0008D4  0100               	movlb	0	; () banked
  1180  0008D6  5168               	movf	USBDeviceInit@i& (0+255),w,b
  1181  0008D8  0D04               	mullw	4
  1182  0008DA  0E00               	movlw	0
  1183  0008DC  24F3               	addwf	prodl,w,c
  1184  0008DE  6ED9               	movwf	fsr2l,c
  1185  0008E0  0E02               	movlw	2
  1186  0008E2  20F4               	addwfc	prodh,w,c
  1187  0008E4  6EDA               	movwf	fsr2h,c
  1188  0008E6  6ADE               	clrf	postinc2,c
  1189  0008E8  6ADE               	clrf	postinc2,c
  1190  0008EA  6ADE               	clrf	postinc2,c
  1191  0008EC  6ADD               	clrf	postdec2,c
  1192                           
  1193                           ; BSR set to: 0
  1194  0008EE  0100               	movlb	0	; () banked
  1195  0008F0  2B68               	incf	USBDeviceInit@i& (0+255),f,b
  1196  0008F2  D7EB               	goto	l4236
  1197  0008F4                     l167:
  1198                           
  1199                           ; BSR set to: 0
  1200                           ;usb_device.c: 328: }
  1201                           ;usb_device.c: 331: UCONbits.PPBRST = 1;
  1202  0008F4  8C64               	bsf	3940,6,c	;volatile
  1203                           
  1204                           ; BSR set to: 0
  1205                           ;usb_device.c: 334: UADDR = 0x00;
  1206  0008F6  0E00               	movlw	0
  1207  0008F8  010F               	movlb	15	; () banked
  1208  0008FA  6F5C               	movwf	92,b	;volatile
  1209                           
  1210                           ; BSR set to: 15
  1211                           ;usb_device.c: 337: UCONbits.PKTDIS = 0;
  1212  0008FC  9864               	bcf	3940,4,c	;volatile
  1213                           
  1214                           ; BSR set to: 15
  1215                           ;usb_device.c: 340: UCONbits.PPBRST = 0;
  1216  0008FE  9C64               	bcf	3940,6,c	;volatile
  1217  000900                     l4252:
  1218                           
  1219                           ;usb_device.c: 344: {
  1220                           ;usb_device.c: 345: (UIR &= 0xF7);
  1221  000900  9662               	bcf	3938,3,c	;volatile
  1222                           
  1223                           ;usb_device.c: 347: inPipes[0].info.Val = 0;
  1224  000902  0E00               	movlw	0
  1225  000904  6E0C               	movwf	_inPipes+3,c	;volatile
  1226                           
  1227                           ;usb_device.c: 348: outPipes[0].info.Val = 0;
  1228  000906  0E00               	movlw	0
  1229  000908  6E04               	movwf	_outPipes+3,c	;volatile
  1230                           
  1231                           ;usb_device.c: 349: outPipes[0].wCount.Val = 0;
  1232  00090A  0E00               	movlw	0
  1233  00090C  6E06               	movwf	_outPipes+5,c	;volatile
  1234  00090E  0E00               	movlw	0
  1235  000910  6E05               	movwf	_outPipes+4,c	;volatile
  1236                           
  1237                           ;usb_device.c: 350: }while(UIRbits.TRNIF == 1);
  1238  000912  B662               	btfsc	3938,3,c	;volatile
  1239  000914  D7F5               	goto	l4252
  1240                           
  1241                           ;usb_device.c: 354: USBStatusStageEnabledFlag1 = 1;
  1242  000916  0E01               	movlw	1
  1243  000918  6E20               	movwf	_USBStatusStageEnabledFlag1,c	;volatile
  1244                           
  1245                           ;usb_device.c: 355: USBStatusStageEnabledFlag2 = 1;
  1246  00091A  0E01               	movlw	1
  1247  00091C  6E21               	movwf	_USBStatusStageEnabledFlag2,c	;volatile
  1248                           
  1249                           ;usb_device.c: 357: USBDeferINDataStagePackets = 0;
  1250  00091E  0E00               	movlw	0
  1251  000920  0100               	movlb	0	; () banked
  1252  000922  6FE8               	movwf	_USBDeferINDataStagePackets& (0+255),b	;volatile
  1253                           
  1254                           ;usb_device.c: 358: USBDeferOUTDataStagePackets = 0;
  1255  000924  0E00               	movlw	0
  1256  000926  0100               	movlb	0	; () banked
  1257  000928  6FE9               	movwf	_USBDeferOUTDataStagePackets& (0+255),b	;volatile
  1258                           
  1259                           ;usb_device.c: 359: USBBusIsSuspended = 0;
  1260  00092A  0E00               	movlw	0
  1261  00092C  6E1D               	movwf	_USBBusIsSuspended,c	;volatile
  1262                           
  1263                           ;usb_device.c: 363: for(i = 0; i < (uint8_t)(2+1u); i++)
  1264  00092E  0E00               	movlw	0
  1265  000930  0100               	movlb	0	; () banked
  1266  000932  6F68               	movwf	USBDeviceInit@i& (0+255),b
  1267  000934                     l4264:
  1268                           
  1269                           ; BSR set to: 0
  1270  000934  0E02               	movlw	2
  1271  000936  0100               	movlb	0	; () banked
  1272  000938  6568               	cpfsgt	USBDeviceInit@i& (0+255),b
  1273  00093A  D001               	goto	l4268
  1274  00093C  D033               	goto	l4274
  1275  00093E                     l4268:
  1276                           
  1277                           ; BSR set to: 0
  1278                           ;usb_device.c: 364: {
  1279                           ;usb_device.c: 365: pBDTEntryIn[i] = 0u;
  1280  00093E  0100               	movlb	0	; () banked
  1281  000940  5168               	movf	USBDeviceInit@i& (0+255),w,b
  1282  000942  0D02               	mullw	2
  1283  000944  0E0F               	movlw	low _pBDTEntryIn
  1284  000946  24F3               	addwf	prodl,w,c
  1285  000948  6ED9               	movwf	fsr2l,c
  1286  00094A  0E00               	movlw	high _pBDTEntryIn
  1287  00094C  20F4               	addwfc	prodh,w,c
  1288  00094E  6EDA               	movwf	fsr2h,c
  1289  000950  0E00               	movlw	0
  1290  000952  6EDE               	movwf	postinc2,c
  1291  000954  0E00               	movlw	0
  1292  000956  6EDD               	movwf	postdec2,c
  1293                           
  1294                           ;usb_device.c: 366: pBDTEntryOut[i] = 0u;
  1295  000958  0100               	movlb	0	; () banked
  1296  00095A  5168               	movf	USBDeviceInit@i& (0+255),w,b
  1297  00095C  0D02               	mullw	2
  1298  00095E  0ECA               	movlw	low _pBDTEntryOut
  1299  000960  24F3               	addwf	prodl,w,c
  1300  000962  6ED9               	movwf	fsr2l,c
  1301  000964  0E00               	movlw	high _pBDTEntryOut
  1302  000966  20F4               	addwfc	prodh,w,c
  1303  000968  6EDA               	movwf	fsr2h,c
  1304  00096A  0E00               	movlw	0
  1305  00096C  6EDE               	movwf	postinc2,c
  1306  00096E  0E00               	movlw	0
  1307  000970  6EDD               	movwf	postdec2,c
  1308                           
  1309                           ;usb_device.c: 367: ep_data_in[i].Val = 0u;
  1310  000972  0100               	movlb	0	; () banked
  1311  000974  5168               	movf	USBDeviceInit@i& (0+255),w,b
  1312  000976  0D01               	mullw	1
  1313  000978  0ED8               	movlw	low _ep_data_in
  1314  00097A  24F3               	addwf	prodl,w,c
  1315  00097C  6ED9               	movwf	fsr2l,c
  1316  00097E  0E00               	movlw	high _ep_data_in
  1317  000980  20F4               	addwfc	prodh,w,c
  1318  000982  6EDA               	movwf	fsr2h,c
  1319  000984  0E00               	movlw	0
  1320  000986  6EDF               	movwf	indf2,c
  1321                           
  1322                           ;usb_device.c: 368: ep_data_out[i].Val = 0u;
  1323  000988  0100               	movlb	0	; () banked
  1324  00098A  5168               	movf	USBDeviceInit@i& (0+255),w,b
  1325  00098C  0D01               	mullw	1
  1326  00098E  0EDB               	movlw	low _ep_data_out
  1327  000990  24F3               	addwf	prodl,w,c
  1328  000992  6ED9               	movwf	fsr2l,c
  1329  000994  0E00               	movlw	high _ep_data_out
  1330  000996  20F4               	addwfc	prodh,w,c
  1331  000998  6EDA               	movwf	fsr2h,c
  1332  00099A  0E00               	movlw	0
  1333  00099C  6EDF               	movwf	indf2,c
  1334                           
  1335                           ; BSR set to: 0
  1336  00099E  0100               	movlb	0	; () banked
  1337  0009A0  2B68               	incf	USBDeviceInit@i& (0+255),f,b
  1338  0009A2  D7C8               	goto	l4264
  1339  0009A4                     l4274:
  1340                           
  1341                           ; BSR set to: 0
  1342                           ;usb_device.c: 369: }
  1343                           ;usb_device.c: 372: pBDTEntryIn[0] = (volatile BDT_ENTRY*)&BDT[2];
  1344  0009A4  0E08               	movlw	8
  1345  0009A6  6E0F               	movwf	_pBDTEntryIn,c
  1346  0009A8  0E02               	movlw	2
  1347  0009AA  6E10               	movwf	_pBDTEntryIn+1,c
  1348                           
  1349                           ; BSR set to: 0
  1350                           ;usb_device.c: 374: UEP0 = 0x06|0x10;
  1351  0009AC  0E16               	movlw	22
  1352  0009AE  010F               	movlb	15	; () banked
  1353  0009B0  6F53               	movwf	83,b	;volatile
  1354                           
  1355                           ; BSR set to: 15
  1356                           ;usb_device.c: 376: BDT[0].ADR = ((uint16_t)(&SetupPkt));
  1357  0009B2  0E02               	movlw	2
  1358  0009B4  0102               	movlb	2	; () banked
  1359  0009B6  6F03               	movwf	3,b	;volatile
  1360  0009B8  0E30               	movlw	48
  1361  0009BA  6F02               	movwf	2,b	;volatile
  1362                           
  1363                           ; BSR set to: 2
  1364                           ;usb_device.c: 377: BDT[0].CNT = 8;
  1365  0009BC  0E08               	movlw	8
  1366  0009BE  0102               	movlb	2	; () banked
  1367  0009C0  6F01               	movwf	1,b	;volatile
  1368                           
  1369                           ; BSR set to: 2
  1370                           ;usb_device.c: 378: BDT[0].STAT.Val = 0x00|0x04;
  1371  0009C2  0E04               	movlw	4
  1372  0009C4  0102               	movlb	2	; () banked
  1373  0009C6  6F00               	movwf	0,b	;volatile
  1374                           
  1375                           ; BSR set to: 2
  1376                           ;usb_device.c: 379: BDT[0].STAT.Val |= 0x80;
  1377  0009C8  0102               	movlb	2	; () banked
  1378  0009CA  8F00               	bsf	0,7,b	;volatile
  1379                           
  1380                           ; BSR set to: 2
  1381                           ;usb_device.c: 382: USBActiveConfiguration = 0;
  1382  0009CC  0E00               	movlw	0
  1383  0009CE  6E29               	movwf	_USBActiveConfiguration,c	;volatile
  1384                           
  1385                           ; BSR set to: 2
  1386                           ;usb_device.c: 384: USB1msTickCount = 0;
  1387  0009D0  0E00               	movlw	0
  1388  0009D2  0100               	movlb	0	; () banked
  1389  0009D4  6FD4               	movwf	_USB1msTickCount& (0+255),b	;volatile
  1390  0009D6  0E00               	movlw	0
  1391  0009D8  6FD5               	movwf	(_USB1msTickCount+1)& (0+255),b	;volatile
  1392  0009DA  0E00               	movlw	0
  1393  0009DC  6FD6               	movwf	(_USB1msTickCount+2)& (0+255),b	;volatile
  1394  0009DE  0E00               	movlw	0
  1395  0009E0  6FD7               	movwf	(_USB1msTickCount+3)& (0+255),b	;volatile
  1396                           
  1397                           ; BSR set to: 0
  1398                           ;usb_device.c: 385: USBTicksSinceSuspendEnd = 0;
  1399  0009E2  0E00               	movlw	0
  1400  0009E4  0100               	movlb	0	; () banked
  1401  0009E6  6FEA               	movwf	_USBTicksSinceSuspendEnd& (0+255),b	;volatile
  1402                           
  1403                           ; BSR set to: 0
  1404                           ;usb_device.c: 388: USBDeviceState = DETACHED_STATE;
  1405  0009E8  0E00               	movlw	0
  1406  0009EA  6E1F               	movwf	_USBDeviceState,c	;volatile
  1407                           
  1408                           ; BSR set to: 0
  1409  0009EC  0012               	return		;funcret
  1410  0009EE                     __end_of_USBDeviceInit:
  1411                           	opt stack 0
  1412                           tblptru	equ	0xFF8
  1413                           prodh	equ	0xFF4
  1414                           prodl	equ	0xFF3
  1415                           postinc0	equ	0xFEE
  1416                           wreg	equ	0xFE8
  1417                           indf2	equ	0xFDF
  1418                           postinc2	equ	0xFDE
  1419                           postdec2	equ	0xFDD
  1420                           fsr2h	equ	0xFDA
  1421                           fsr2l	equ	0xFD9
  1422                           status	equ	0xFD8
  1423                           
  1424 ;; *************** function _memset *****************
  1425 ;; Defined at:
  1426 ;;		line 8 in file "C:\Program Files (x86)\Microchip\xc8\v1.35\sources\common\memset.c"
  1427 ;; Parameters:    Size  Location     Type
  1428 ;;  p1              2    0[BANK0 ] PTR void 
  1429 ;;		 -> USBAlternateInterface(2), BDT(48), UEP1(1), 
  1430 ;;  c               2    2[BANK0 ] int 
  1431 ;;  n               2    4[BANK0 ] unsigned int 
  1432 ;; Auto vars:     Size  Location     Type
  1433 ;;  p               2    6[BANK0 ] PTR unsigned char 
  1434 ;;		 -> USBAlternateInterface(2), BDT(48), UEP1(1), 
  1435 ;; Return value:  Size  Location     Type
  1436 ;;                  2    0[BANK0 ] PTR void 
  1437 ;; Registers used:
  1438 ;;		wreg, fsr2l, fsr2h, status,2, status,0
  1439 ;; Tracked objects:
  1440 ;;		On entry : 0/0
  1441 ;;		On exit  : 0/0
  1442 ;;		Unchanged: 0/0
  1443 ;; Data sizes:     COMRAM   BANK0   BANK1   BANK2
  1444 ;;      Params:         0       6       0       0
  1445 ;;      Locals:         0       2       0       0
  1446 ;;      Temps:          0       0       0       0
  1447 ;;      Totals:         0       8       0       0
  1448 ;;Total ram usage:        8 bytes
  1449 ;; Hardware stack levels used:    1
  1450 ;; Hardware stack levels required when called:   11
  1451 ;; This function calls:
  1452 ;;		Nothing
  1453 ;; This function is called by:
  1454 ;;		_USBDeviceInit
  1455 ;; This function uses a non-reentrant model
  1456 ;;
  1457                           
  1458                           	psect	text4
  1459  001E5C                     __ptext4:
  1460                           	opt stack 0
  1461  001E5C                     _memset:
  1462                           	opt stack 17
  1463                           
  1464                           ; BSR set to: 0
  1465                           ;incstack = 0
  1466  001E5C  C060  F066         	movff	memset@p1,memset@p
  1467  001E60  C061  F067         	movff	memset@p1+1,memset@p+1
  1468  001E64  D009               	goto	l4184
  1469  001E66                     l4180:
  1470  001E66  C066  FFD9         	movff	memset@p,fsr2l
  1471  001E6A  C067  FFDA         	movff	memset@p+1,fsr2h
  1472  001E6E  C062  FFDF         	movff	memset@c,indf2
  1473  001E72  0100               	movlb	0	; () banked
  1474  001E74  4B66               	infsnz	memset@p& (0+255),f,b
  1475  001E76  2B67               	incf	(memset@p+1)& (0+255),f,b
  1476  001E78                     l4184:
  1477  001E78  0100               	movlb	0	; () banked
  1478  001E7A  0764               	decf	memset@n& (0+255),f,b
  1479  001E7C  A0D8               	btfss	status,0,c
  1480  001E7E  0765               	decf	(memset@n+1)& (0+255),f,b
  1481  001E80  0100               	movlb	0	; () banked
  1482  001E82  2964               	incf	memset@n& (0+255),w,b
  1483  001E84  E1F0               	bnz	l4180
  1484  001E86  0100               	movlb	0	; () banked
  1485  001E88  2965               	incf	(memset@n+1)& (0+255),w,b
  1486  001E8A  B4D8               	btfsc	status,2,c
  1487  001E8C  0012               	return	
  1488  001E8E  D7EB               	goto	l4180
  1489  001E90                     __end_of_memset:
  1490                           	opt stack 0
  1491                           tblptru	equ	0xFF8
  1492                           prodh	equ	0xFF4
  1493                           prodl	equ	0xFF3
  1494                           postinc0	equ	0xFEE
  1495                           wreg	equ	0xFE8
  1496                           indf2	equ	0xFDF
  1497                           postinc2	equ	0xFDE
  1498                           postdec2	equ	0xFDD
  1499                           fsr2h	equ	0xFDA
  1500                           fsr2l	equ	0xFD9
  1501                           status	equ	0xFD8
  1502                           
  1503 ;; *************** function _USBDeviceAttach *****************
  1504 ;; Defined at:
  1505 ;;		line 1370 in file "CDCLib/usb_device.c"
  1506 ;; Parameters:    Size  Location     Type
  1507 ;;		None
  1508 ;; Auto vars:     Size  Location     Type
  1509 ;;		None
  1510 ;; Return value:  Size  Location     Type
  1511 ;;		None               void
  1512 ;; Registers used:
  1513 ;;		wreg, status,2
  1514 ;; Tracked objects:
  1515 ;;		On entry : 0/0
  1516 ;;		On exit  : 0/0
  1517 ;;		Unchanged: 0/0
  1518 ;; Data sizes:     COMRAM   BANK0   BANK1   BANK2
  1519 ;;      Params:         0       0       0       0
  1520 ;;      Locals:         0       0       0       0
  1521 ;;      Temps:          0       0       0       0
  1522 ;;      Totals:         0       0       0       0
  1523 ;;Total ram usage:        0 bytes
  1524 ;; Hardware stack levels used:    1
  1525 ;; Hardware stack levels required when called:   11
  1526 ;; This function calls:
  1527 ;;		Nothing
  1528 ;; This function is called by:
  1529 ;;		_systemInit
  1530 ;; This function uses a non-reentrant model
  1531 ;;
  1532                           
  1533                           	psect	text5
  1534  001EC4                     __ptext5:
  1535                           	opt stack 0
  1536  001EC4                     _USBDeviceAttach:
  1537                           	opt stack 18
  1538                           
  1539                           ;usb_device.c: 1374: {
  1540                           ;usb_device.c: 1375: if(1 == 1)
  1541                           
  1542                           ; BSR set to: 0
  1543                           ;incstack = 0
  1544  001EC4  501F               	movf	_USBDeviceState,w,c	;volatile
  1545  001EC6  A4D8               	btfss	status,2,c
  1546  001EC8  0012               	return	
  1547                           
  1548                           ;usb_device.c: 1376: {
  1549                           ;usb_device.c: 1378: UCON = 0;
  1550  001ECA  0E00               	movlw	0
  1551  001ECC  6E64               	movwf	3940,c	;volatile
  1552                           
  1553                           ;usb_device.c: 1381: UIE = 0;
  1554  001ECE  0E00               	movlw	0
  1555  001ED0  6E60               	movwf	3936,c	;volatile
  1556                           
  1557                           ;usb_device.c: 1385: { UCFG = 0x10 | 0x00 | 0x04 | 0x02; UEIE = 0x9F; UIE = 0x39 | 0x40 
      +                          | 0x02; };
  1558  001ED2  0E16               	movlw	22
  1559  001ED4  6E61               	movwf	3937,c	;volatile
  1560  001ED6  0E9F               	movlw	159
  1561  001ED8  010F               	movlb	15	; () banked
  1562  001EDA  6F5B               	movwf	91,b	;volatile
  1563  001EDC  0E7B               	movlw	123
  1564  001EDE  6E60               	movwf	3936,c	;volatile
  1565                           
  1566                           ; BSR set to: 15
  1567                           ;usb_device.c: 1387: {RCONbits.IPEN = 1;IPR2bits.USBIP = 1;PIE2bits.USBIE = 1;INTCONbits
      +                          .GIEH = 1;};
  1568  001EE0  8ED0               	bsf	4048,7,c	;volatile
  1569                           
  1570                           ; BSR set to: 15
  1571  001EE2  84A2               	bsf	4002,2,c	;volatile
  1572                           
  1573                           ; BSR set to: 15
  1574  001EE4  84A0               	bsf	4000,2,c	;volatile
  1575                           
  1576                           ; BSR set to: 15
  1577  001EE6  8EF2               	bsf	intcon,7,c	;volatile
  1578                           
  1579                           ;usb_device.c: 1390: while(!UCONbits.USBEN){UCONbits.USBEN = 1;}
  1580  001EE8  D001               	goto	l227
  1581  001EEA                     l228:
  1582  001EEA  8664               	bsf	3940,3,c	;volatile
  1583  001EEC                     l227:
  1584  001EEC  A664               	btfss	3940,3,c	;volatile
  1585  001EEE  D7FD               	goto	l228
  1586                           
  1587                           ;usb_device.c: 1393: USBDeviceState = ATTACHED_STATE;
  1588  001EF0  0E01               	movlw	1
  1589  001EF2  6E1F               	movwf	_USBDeviceState,c	;volatile
  1590  001EF4  0012               	return	
  1591  001EF6                     __end_of_USBDeviceAttach:
  1592                           	opt stack 0
  1593                           tblptru	equ	0xFF8
  1594                           prodh	equ	0xFF4
  1595                           prodl	equ	0xFF3
  1596                           intcon	equ	0xFF2
  1597                           postinc0	equ	0xFEE
  1598                           wreg	equ	0xFE8
  1599                           indf2	equ	0xFDF
  1600                           postinc2	equ	0xFDE
  1601                           postdec2	equ	0xFDD
  1602                           fsr2h	equ	0xFDA
  1603                           fsr2l	equ	0xFD9
  1604                           status	equ	0xFD8
  1605                           
  1606 ;; *************** function _SYSTEM_Initialize *****************
  1607 ;; Defined at:
  1608 ;;		line 69 in file "CDCLib/system.c"
  1609 ;; Parameters:    Size  Location     Type
  1610 ;;  state           1    wreg     enum E3753
  1611 ;; Auto vars:     Size  Location     Type
  1612 ;;  state           1    0[BANK0 ] enum E3753
  1613 ;; Return value:  Size  Location     Type
  1614 ;;		None               void
  1615 ;; Registers used:
  1616 ;;		wreg, status,2, status,0
  1617 ;; Tracked objects:
  1618 ;;		On entry : 0/0
  1619 ;;		On exit  : 0/0
  1620 ;;		Unchanged: 0/0
  1621 ;; Data sizes:     COMRAM   BANK0   BANK1   BANK2
  1622 ;;      Params:         0       0       0       0
  1623 ;;      Locals:         0       1       0       0
  1624 ;;      Temps:          0       0       0       0
  1625 ;;      Totals:         0       1       0       0
  1626 ;;Total ram usage:        1 bytes
  1627 ;; Hardware stack levels used:    1
  1628 ;; Hardware stack levels required when called:   11
  1629 ;; This function calls:
  1630 ;;		Nothing
  1631 ;; This function is called by:
  1632 ;;		_systemInit
  1633 ;; This function uses a non-reentrant model
  1634 ;;
  1635                           
  1636                           	psect	text6
  1637  002014                     __ptext6:
  1638                           	opt stack 0
  1639  002014                     _SYSTEM_Initialize:
  1640                           	opt stack 18
  1641                           
  1642                           ;incstack = 0
  1643                           ;SYSTEM_Initialize@state stored from wreg
  1644  002014  0100               	movlb	0	; () banked
  1645  002016  6F60               	movwf	SYSTEM_Initialize@state& (0+255),b
  1646                           
  1647                           ;system.c: 81: }
  1648                           
  1649                           ;system.c: 80: break;
  1650                           
  1651                           ;system.c: 79: case SYSTEM_STATE_USB_RESUME:
  1652                           
  1653                           ;system.c: 77: break;
  1654                           
  1655                           ;system.c: 76: case SYSTEM_STATE_USB_SUSPEND:
  1656                           
  1657                           ;system.c: 74: break;
  1658                           
  1659                           ;system.c: 72: {
  1660                           ;system.c: 73: case SYSTEM_STATE_USB_START:
  1661                           
  1662                           ;system.c: 71: switch(state)
  1663  002018  0100               	movlb	0	; () banked
  1664  00201A  5160               	movf	SYSTEM_Initialize@state& (0+255),w,b
  1665                           
  1666                           ; Switch size 1, requested type "space"
  1667                           ; Number of cases is 3, Range of values is 0 to 2
  1668                           ; switch strategies available:
  1669                           ; Name         Instructions Cycles
  1670                           ; simple_byte           10     6 (average)
  1671                           ;	Chosen strategy is simple_byte
  1672  00201C  0A00               	xorlw	0	; case 0
  1673  00201E  B4D8               	btfsc	status,2,c
  1674  002020  0012               	return	
  1675  002022  0A01               	xorlw	1	; case 1
  1676  002024  B4D8               	btfsc	status,2,c
  1677  002026  0012               	return	
  1678  002028  0A03               	xorlw	3	; case 2
  1679  00202A  0012               	return	
  1680  00202C                     __end_of_SYSTEM_Initialize:
  1681                           	opt stack 0
  1682                           tblptru	equ	0xFF8
  1683                           prodh	equ	0xFF4
  1684                           prodl	equ	0xFF3
  1685                           intcon	equ	0xFF2
  1686                           postinc0	equ	0xFEE
  1687                           wreg	equ	0xFE8
  1688                           indf2	equ	0xFDF
  1689                           postinc2	equ	0xFDE
  1690                           postdec2	equ	0xFDD
  1691                           fsr2h	equ	0xFDA
  1692                           fsr2l	equ	0xFD9
  1693                           status	equ	0xFD8
  1694                           
  1695 ;; *************** function _sprintf *****************
  1696 ;; Defined at:
  1697 ;;		line 492 in file "C:\Program Files (x86)\Microchip\xc8\v1.35\sources\common\doprnt.c"
  1698 ;; Parameters:    Size  Location     Type
  1699 ;;  sp              2   12[BANK0 ] PTR unsigned char 
  1700 ;;		 -> main@text(256), 
  1701 ;;  f               2   14[BANK0 ] PTR const unsigned char 
  1702 ;;		 -> STR_1(7), 
  1703 ;; Auto vars:     Size  Location     Type
  1704 ;;  tmpval          4    0        struct .
  1705 ;;  val             2   27[BANK0 ] unsigned int 
  1706 ;;  cp              2   25[BANK0 ] PTR const unsigned char 
  1707 ;;		 -> STR_2(7), main@buff(64), 
  1708 ;;  ap              2   23[BANK0 ] PTR void [1]
  1709 ;;		 -> ?_sprintf(2), 
  1710 ;;  len             2    0        unsigned int 
  1711 ;;  c               1   29[BANK0 ] char 
  1712 ;;  prec            1   22[BANK0 ] char 
  1713 ;;  flag            1   21[BANK0 ] unsigned char 
  1714 ;; Return value:  Size  Location     Type
  1715 ;;                  2   12[BANK0 ] int 
  1716 ;; Registers used:
  1717 ;;		wreg, fsr1l, fsr1h, fsr2l, fsr2h, status,2, status,0, tblptrl, tblptrh, tblptru, prodl, prodh, cstack
  1718 ;; Tracked objects:
  1719 ;;		On entry : 0/0
  1720 ;;		On exit  : 0/0
  1721 ;;		Unchanged: 0/0
  1722 ;; Data sizes:     COMRAM   BANK0   BANK1   BANK2
  1723 ;;      Params:         0       8       0       0
  1724 ;;      Locals:         0       9       0       0
  1725 ;;      Temps:          0       1       0       0
  1726 ;;      Totals:         0      18       0       0
  1727 ;;Total ram usage:       18 bytes
  1728 ;; Hardware stack levels used:    1
  1729 ;; Hardware stack levels required when called:   12
  1730 ;; This function calls:
  1731 ;;		___lwdiv
  1732 ;;		___lwmod
  1733 ;; This function is called by:
  1734 ;;		_main
  1735 ;; This function uses a non-reentrant model
  1736 ;;
  1737                           
  1738                           	psect	text7
  1739  000664                     __ptext7:
  1740                           	opt stack 0
  1741  000664                     _sprintf:
  1742                           	opt stack 18
  1743                           
  1744                           ;doprnt.c: 494: va_list ap;
  1745                           ;doprnt.c: 499: signed char c;
  1746                           ;doprnt.c: 506: signed char prec;
  1747                           ;doprnt.c: 508: unsigned char flag;
  1748                           ;doprnt.c: 523: union {
  1749                           ;doprnt.c: 524: unsigned long vd;
  1750                           ;doprnt.c: 525: double integ;
  1751                           ;doprnt.c: 526: } tmpval;
  1752                           ;doprnt.c: 528: unsigned int val;
  1753                           ;doprnt.c: 529: unsigned len;
  1754                           ;doprnt.c: 530: const char * cp;
  1755                           ;doprnt.c: 533: *ap = __va_start();
  1756                           
  1757                           ;incstack = 0
  1758  000664  0E70               	movlw	low (?_sprintf+4)
  1759  000666  0100               	movlb	0	; () banked
  1760  000668  6F77               	movwf	sprintf@ap& (0+255),b
  1761  00066A  0E00               	movlw	high (?_sprintf+4)
  1762  00066C  0100               	movlb	0	; () banked
  1763  00066E  6F78               	movwf	(sprintf@ap+1)& (0+255),b
  1764                           
  1765                           ;doprnt.c: 536: while(c = *f++) {
  1766  000670  D0F2               	goto	l4568
  1767  000672                     l4500:
  1768                           
  1769                           ; BSR set to: 0
  1770                           ;doprnt.c: 538: if(c != '%')
  1771  000672  0E25               	movlw	37
  1772  000674  0100               	movlb	0	; () banked
  1773  000676  197D               	xorwf	sprintf@c& (0+255),w,b
  1774  000678  B4D8               	btfsc	status,2,c
  1775  00067A  D00A               	goto	l4506
  1776                           
  1777                           ; BSR set to: 0
  1778                           ;doprnt.c: 540: {
  1779                           ;doprnt.c: 541: ((*sp++ = (c)));
  1780  00067C  C06C  FFD9         	movff	sprintf@sp,fsr2l
  1781  000680  C06D  FFDA         	movff	sprintf@sp+1,fsr2h
  1782  000684  C07D  FFDF         	movff	sprintf@c,indf2
  1783                           
  1784                           ; BSR set to: 0
  1785  000688  0100               	movlb	0	; () banked
  1786  00068A  4B6C               	infsnz	sprintf@sp& (0+255),f,b
  1787  00068C  2B6D               	incf	(sprintf@sp+1)& (0+255),f,b
  1788                           
  1789                           ;doprnt.c: 542: continue;
  1790  00068E  D0E3               	goto	l4568
  1791  000690                     l4506:
  1792                           
  1793                           ; BSR set to: 0
  1794                           ;doprnt.c: 543: }
  1795                           ;doprnt.c: 548: flag = 0;
  1796  000690  0E00               	movlw	0
  1797  000692  0100               	movlb	0	; () banked
  1798  000694  6F75               	movwf	sprintf@flag& (0+255),b
  1799                           
  1800                           ;doprnt.c: 635: switch(c = *f++) {
  1801  000696  D049               	goto	l4526
  1802  000698                     l4508:
  1803                           
  1804                           ; BSR set to: 0
  1805                           ;doprnt.c: 734: cp = (*(const char * *)__va_arg((*(const char * **)ap), (const char *)0)
      +                          );
  1806  000698  C077  FFD9         	movff	sprintf@ap,fsr2l
  1807  00069C  C078  FFDA         	movff	sprintf@ap+1,fsr2h
  1808  0006A0  CFDE F079          	movff	postinc2,sprintf@cp
  1809  0006A4  CFDD F07A          	movff	postdec2,sprintf@cp+1
  1810                           
  1811                           ; BSR set to: 0
  1812  0006A8  0E02               	movlw	2
  1813  0006AA  0100               	movlb	0	; () banked
  1814  0006AC  2777               	addwf	sprintf@ap& (0+255),f,b
  1815  0006AE  0E00               	movlw	0
  1816  0006B0  2378               	addwfc	(sprintf@ap+1)& (0+255),f,b
  1817                           
  1818                           ; BSR set to: 0
  1819                           ;doprnt.c: 740: if(!cp)
  1820  0006B2  0100               	movlb	0	; () banked
  1821  0006B4  5179               	movf	sprintf@cp& (0+255),w,b
  1822  0006B6  0100               	movlb	0	; () banked
  1823  0006B8  117A               	iorwf	(sprintf@cp+1)& (0+255),w,b
  1824  0006BA  A4D8               	btfss	status,2,c
  1825  0006BC  D022               	goto	l4522
  1826                           
  1827                           ; BSR set to: 0
  1828                           ;doprnt.c: 741: cp = "(null)";
  1829  0006BE  0ED4               	movlw	low STR_2
  1830  0006C0  0100               	movlb	0	; () banked
  1831  0006C2  6F79               	movwf	sprintf@cp& (0+255),b
  1832  0006C4  0E03               	movlw	high STR_2
  1833  0006C6  0100               	movlb	0	; () banked
  1834  0006C8  6F7A               	movwf	(sprintf@cp+1)& (0+255),b
  1835                           
  1836                           ; BSR set to: 0
  1837                           ;doprnt.c: 777: while(*cp)
  1838  0006CA  D01B               	goto	l4522
  1839  0006CC                     l4516:
  1840                           
  1841                           ;doprnt.c: 778: ((*sp++ = (*cp++)));
  1842  0006CC  C079  FFF6         	movff	sprintf@cp,tblptrl
  1843  0006D0  C07A  FFF7         	movff	sprintf@cp+1,tblptrh
  1844  0006D4  6AF8               	clrf	tblptru,c
  1845  0006D6  C06C  FFD9         	movff	sprintf@sp,fsr2l
  1846  0006DA  C06D  FFDA         	movff	sprintf@sp+1,fsr2h
  1847  0006DE  0E02               	movlw	(high __ramtop+-1)
  1848  0006E0  64F7               	cpfsgt	tblptrh,c
  1849  0006E2  D003               	bra	u4037
  1850  0006E4  0008               	tblrd		*
  1851  0006E6  50F5               	movf	tablat,w,c
  1852  0006E8  D005               	bra	u4030
  1853  0006EA                     u4037:
  1854  0006EA  CFF6 FFE1          	movff	tblptrl,fsr1l
  1855  0006EE  CFF7 FFE2          	movff	tblptrh,fsr1h
  1856  0006F2  50E7               	movf	indf1,w,c
  1857  0006F4                     u4030:
  1858  0006F4  6EDF               	movwf	indf2,c
  1859  0006F6  0100               	movlb	0	; () banked
  1860  0006F8  4B79               	infsnz	sprintf@cp& (0+255),f,b
  1861  0006FA  2B7A               	incf	(sprintf@cp+1)& (0+255),f,b
  1862                           
  1863                           ; BSR set to: 0
  1864  0006FC  0100               	movlb	0	; () banked
  1865  0006FE  4B6C               	infsnz	sprintf@sp& (0+255),f,b
  1866  000700  2B6D               	incf	(sprintf@sp+1)& (0+255),f,b
  1867  000702                     l4522:
  1868                           
  1869                           ; BSR set to: 0
  1870  000702  C079  FFF6         	movff	sprintf@cp,tblptrl
  1871  000706  C07A  FFF7         	movff	sprintf@cp+1,tblptrh
  1872  00070A  6AF8               	clrf	tblptru,c
  1873  00070C  0E02               	movlw	(high __ramtop+-1)
  1874  00070E  64F7               	cpfsgt	tblptrh,c
  1875  000710  D003               	bra	u4047
  1876  000712  0008               	tblrd		*
  1877  000714  50F5               	movf	tablat,w,c
  1878  000716  D005               	bra	u4040
  1879  000718                     u4047:
  1880  000718  CFF6 FFE1          	movff	tblptrl,fsr1l
  1881  00071C  CFF7 FFE2          	movff	tblptrh,fsr1h
  1882  000720  50E7               	movf	indf1,w,c
  1883  000722                     u4040:
  1884  000722  0900               	iorlw	0
  1885  000724  B4D8               	btfsc	status,2,c
  1886  000726  D097               	goto	l4568
  1887  000728  D7D1               	goto	l4516
  1888  00072A                     l4526:
  1889  00072A  C06E  FFF6         	movff	sprintf@f,tblptrl
  1890  00072E  C06F  FFF7         	movff	sprintf@f+1,tblptrh
  1891  000732  0100               	movlb	0	; () banked
  1892  000734  4B6E               	infsnz	sprintf@f& (0+255),f,b
  1893  000736  2B6F               	incf	(sprintf@f+1)& (0+255),f,b
  1894  000738                     	if	0	;tblptru may be non-zero
  1895  000738                     	endif
  1896  000738                     	if	0	;tblptru may be non-zero
  1897  000738                     	endif
  1898  000738  0008               	tblrd		*
  1899  00073A  CFF5 F07D          	movff	tablat,sprintf@c
  1900  00073E  0100               	movlb	0	; () banked
  1901  000740  517D               	movf	sprintf@c& (0+255),w,b
  1902                           
  1903                           ; Switch size 1, requested type "space"
  1904                           ; Number of cases is 4, Range of values is 0 to 115
  1905                           ; switch strategies available:
  1906                           ; Name         Instructions Cycles
  1907                           ; simple_byte           13     7 (average)
  1908                           ;	Chosen strategy is simple_byte
  1909  000742  0A00               	xorlw	0	; case 0
  1910  000744  B4D8               	btfsc	status,2,c
  1911  000746  D095               	goto	l4570
  1912  000748  0A64               	xorlw	100	; case 100
  1913  00074A  B4D8               	btfsc	status,2,c
  1914  00074C  D007               	goto	l4528
  1915  00074E  0A0D               	xorlw	13	; case 105
  1916  000750  B4D8               	btfsc	status,2,c
  1917  000752  D004               	goto	l4528
  1918  000754  0A1A               	xorlw	26	; case 115
  1919  000756  B4D8               	btfsc	status,2,c
  1920  000758  D79F               	goto	l4508
  1921  00075A  D07D               	goto	l4568
  1922  00075C                     l4528:
  1923                           
  1924                           ;doprnt.c: 1253: {
  1925                           ;doprnt.c: 1259: val = (int)(*(int *)__va_arg((*(int **)ap), (int)0));
  1926  00075C  C077  FFD9         	movff	sprintf@ap,fsr2l
  1927  000760  C078  FFDA         	movff	sprintf@ap+1,fsr2h
  1928  000764  CFDE F07B          	movff	postinc2,sprintf@val
  1929  000768  CFDD F07C          	movff	postdec2,sprintf@val+1
  1930  00076C  0E02               	movlw	2
  1931  00076E  0100               	movlb	0	; () banked
  1932  000770  2777               	addwf	sprintf@ap& (0+255),f,b
  1933  000772  0E00               	movlw	0
  1934  000774  2378               	addwfc	(sprintf@ap+1)& (0+255),f,b
  1935                           
  1936                           ; BSR set to: 0
  1937                           ;doprnt.c: 1261: if((int)val < 0) {
  1938  000776  0100               	movlb	0	; () banked
  1939  000778  AF7C               	btfss	(sprintf@val+1)& (0+255),7,b
  1940  00077A  D008               	goto	l4538
  1941                           
  1942                           ; BSR set to: 0
  1943                           ;doprnt.c: 1262: flag |= 0x03;
  1944  00077C  0E03               	movlw	3
  1945  00077E  0100               	movlb	0	; () banked
  1946  000780  1375               	iorwf	sprintf@flag& (0+255),f,b
  1947                           
  1948                           ; BSR set to: 0
  1949                           ;doprnt.c: 1263: val = -val;
  1950  000782  0100               	movlb	0	; () banked
  1951  000784  6D7B               	negf	sprintf@val& (0+255),b
  1952  000786  1F7C               	comf	(sprintf@val+1)& (0+255),f,b
  1953  000788  B0D8               	btfsc	status,0,c
  1954  00078A  2B7C               	incf	(sprintf@val+1)& (0+255),f,b
  1955  00078C                     l4538:
  1956                           
  1957                           ; BSR set to: 0
  1958                           ;doprnt.c: 1264: }
  1959                           ;doprnt.c: 1266: }
  1960                           ;doprnt.c: 1305: for(c = 1 ; c != sizeof dpowers/sizeof dpowers[0] ; c++)
  1961  00078C  0E01               	movlw	1
  1962  00078E  0100               	movlb	0	; () banked
  1963  000790  6F7D               	movwf	sprintf@c& (0+255),b
  1964  000792                     l4540:
  1965                           
  1966                           ; BSR set to: 0
  1967  000792  0E05               	movlw	5
  1968  000794  0100               	movlb	0	; () banked
  1969  000796  197D               	xorwf	sprintf@c& (0+255),w,b
  1970  000798  B4D8               	btfsc	status,2,c
  1971  00079A  D016               	goto	l4552
  1972                           
  1973                           ; BSR set to: 0
  1974                           ;doprnt.c: 1306: if(val < dpowers[c])
  1975                           
  1976                           ; BSR set to: 0
  1977                           
  1978                           ; BSR set to: 0
  1979  00079C  0100               	movlb	0	; () banked
  1980  00079E  517D               	movf	sprintf@c& (0+255),w,b
  1981  0007A0  0D02               	mullw	2
  1982  0007A2  0E01               	movlw	low _dpowers
  1983  0007A4  24F3               	addwf	prodl,w,c
  1984  0007A6  6EF6               	movwf	tblptrl,c
  1985  0007A8  0E03               	movlw	high _dpowers
  1986  0007AA  20F4               	addwfc	prodh,w,c
  1987  0007AC  6EF7               	movwf	tblptrh,c
  1988  0007AE                     	if	0	;There are less than 3 active tblptr bytes
  1989  0007AE                     	endif
  1990  0007AE  0009               	tblrd		*+
  1991  0007B0  50F5               	movf	tablat,w,c
  1992  0007B2  0100               	movlb	0	; () banked
  1993  0007B4  5D7B               	subwf	sprintf@val& (0+255),w,b
  1994  0007B6  0009               	tblrd		*+
  1995  0007B8  50F5               	movf	tablat,w,c
  1996  0007BA  0100               	movlb	0	; () banked
  1997  0007BC  597C               	subwfb	(sprintf@val+1)& (0+255),w,b
  1998  0007BE  A0D8               	btfss	status,0,c
  1999  0007C0  D003               	goto	l4552
  2000                           
  2001                           ; BSR set to: 0
  2002                           
  2003                           ; BSR set to: 0
  2004                           
  2005                           ; BSR set to: 0
  2006                           ;doprnt.c: 1307: break;
  2007  0007C2  0100               	movlb	0	; () banked
  2008  0007C4  2B7D               	incf	sprintf@c& (0+255),f,b
  2009  0007C6  D7E5               	goto	l4540
  2010  0007C8                     l4552:
  2011                           
  2012                           ; BSR set to: 0
  2013                           ;doprnt.c: 1422: {
  2014                           ;doprnt.c: 1438: if(flag & 0x03)
  2015  0007C8  C075  F074         	movff	sprintf@flag,??_sprintf
  2016  0007CC  0E03               	movlw	3
  2017  0007CE  0100               	movlb	0	; () banked
  2018  0007D0  1774               	andwf	??_sprintf& (0+255),f,b
  2019  0007D2  B4D8               	btfsc	status,2,c
  2020  0007D4  D009               	goto	l4558
  2021                           
  2022                           ; BSR set to: 0
  2023                           ;doprnt.c: 1439: ((*sp++ = ('-')));
  2024  0007D6  C06C  FFD9         	movff	sprintf@sp,fsr2l
  2025  0007DA  C06D  FFDA         	movff	sprintf@sp+1,fsr2h
  2026  0007DE  0E2D               	movlw	45
  2027  0007E0  6EDF               	movwf	indf2,c
  2028                           
  2029                           ; BSR set to: 0
  2030  0007E2  0100               	movlb	0	; () banked
  2031  0007E4  4B6C               	infsnz	sprintf@sp& (0+255),f,b
  2032  0007E6  2B6D               	incf	(sprintf@sp+1)& (0+255),f,b
  2033  0007E8                     l4558:
  2034                           
  2035                           ; BSR set to: 0
  2036                           ;doprnt.c: 1469: }
  2037                           ;doprnt.c: 1472: prec = c;
  2038  0007E8  C07D  F076         	movff	sprintf@c,sprintf@prec
  2039                           
  2040                           ;doprnt.c: 1474: while(prec--) {
  2041  0007EC  D02E               	goto	l4566
  2042  0007EE                     l4560:
  2043                           
  2044                           ; BSR set to: 0
  2045                           ;doprnt.c: 1478: {
  2046                           ;doprnt.c: 1489: c = (val / dpowers[prec]) % 10 + '0';
  2047  0007EE  0100               	movlb	0	; () banked
  2048  0007F0  5176               	movf	sprintf@prec& (0+255),w,b
  2049  0007F2  0D02               	mullw	2
  2050  0007F4  0E01               	movlw	low _dpowers
  2051  0007F6  24F3               	addwf	prodl,w,c
  2052  0007F8  6EF6               	movwf	tblptrl,c
  2053  0007FA  0E03               	movlw	high _dpowers
  2054  0007FC  20F4               	addwfc	prodh,w,c
  2055  0007FE  6EF7               	movwf	tblptrh,c
  2056  000800                     	if	0	;There are less than 3 active tblptr bytes
  2057  000800                     	endif
  2058  000800  0009               	tblrd		*+
  2059  000802  CFF5 F062          	movff	tablat,___lwdiv@divisor
  2060  000806  000A               	tblrd		*-
  2061  000808  CFF5 F063          	movff	tablat,___lwdiv@divisor+1
  2062  00080C  C07B  F060         	movff	sprintf@val,___lwdiv@dividend
  2063  000810  C07C  F061         	movff	sprintf@val+1,___lwdiv@dividend+1
  2064  000814  EC9A  F00D         	call	___lwdiv	;wreg free
  2065  000818  C060  F067         	movff	?___lwdiv,___lwmod@dividend
  2066  00081C  C061  F068         	movff	?___lwdiv+1,___lwmod@dividend+1
  2067  000820  0E00               	movlw	0
  2068  000822  0100               	movlb	0	; () banked
  2069  000824  6F6A               	movwf	(___lwmod@divisor+1)& (0+255),b
  2070  000826  0E0A               	movlw	10
  2071  000828  6F69               	movwf	___lwmod@divisor& (0+255),b
  2072  00082A  EC44  F00E         	call	___lwmod	;wreg free
  2073  00082E  0100               	movlb	0	; () banked
  2074  000830  5167               	movf	?___lwmod& (0+255),w,b
  2075  000832  0F30               	addlw	48
  2076  000834  0100               	movlb	0	; () banked
  2077  000836  6F7D               	movwf	sprintf@c& (0+255),b
  2078                           
  2079                           ; BSR set to: 0
  2080                           ;doprnt.c: 1523: }
  2081                           ;doprnt.c: 1524: ((*sp++ = (c)));
  2082  000838  C06C  FFD9         	movff	sprintf@sp,fsr2l
  2083  00083C  C06D  FFDA         	movff	sprintf@sp+1,fsr2h
  2084  000840  C07D  FFDF         	movff	sprintf@c,indf2
  2085                           
  2086                           ; BSR set to: 0
  2087  000844  0100               	movlb	0	; () banked
  2088  000846  4B6C               	infsnz	sprintf@sp& (0+255),f,b
  2089  000848  2B6D               	incf	(sprintf@sp+1)& (0+255),f,b
  2090  00084A                     l4566:
  2091                           
  2092                           ; BSR set to: 0
  2093  00084A  0100               	movlb	0	; () banked
  2094  00084C  0776               	decf	sprintf@prec& (0+255),f,b
  2095  00084E  0100               	movlb	0	; () banked
  2096  000850  2976               	incf	sprintf@prec& (0+255),w,b
  2097  000852  A4D8               	btfss	status,2,c
  2098  000854  D7CC               	goto	l4560
  2099  000856                     l4568:
  2100  000856  C06E  FFF6         	movff	sprintf@f,tblptrl
  2101  00085A  C06F  FFF7         	movff	sprintf@f+1,tblptrh
  2102  00085E  0100               	movlb	0	; () banked
  2103  000860  4B6E               	infsnz	sprintf@f& (0+255),f,b
  2104  000862  2B6F               	incf	(sprintf@f+1)& (0+255),f,b
  2105  000864                     	if	0	;tblptru may be non-zero
  2106  000864                     	endif
  2107  000864                     	if	0	;tblptru may be non-zero
  2108  000864                     	endif
  2109  000864  0008               	tblrd		*
  2110  000866  CFF5 F07D          	movff	tablat,sprintf@c
  2111  00086A  0100               	movlb	0	; () banked
  2112  00086C  517D               	movf	sprintf@c& (0+255),w,b
  2113  00086E  A4D8               	btfss	status,2,c
  2114  000870  D700               	goto	l4500
  2115  000872                     l4570:
  2116                           
  2117                           ; BSR set to: 0
  2118                           ;doprnt.c: 1538: *sp = 0;
  2119  000872  C06C  FFD9         	movff	sprintf@sp,fsr2l
  2120  000876  C06D  FFDA         	movff	sprintf@sp+1,fsr2h
  2121  00087A  0E00               	movlw	0
  2122  00087C  6EDF               	movwf	indf2,c
  2123  00087E  0012               	return	
  2124  000880                     __end_of_sprintf:
  2125                           	opt stack 0
  2126                           tblptru	equ	0xFF8
  2127                           tblptrh	equ	0xFF7
  2128                           tblptrl	equ	0xFF6
  2129                           tablat	equ	0xFF5
  2130                           prodh	equ	0xFF4
  2131                           prodl	equ	0xFF3
  2132                           intcon	equ	0xFF2
  2133                           postinc0	equ	0xFEE
  2134                           wreg	equ	0xFE8
  2135                           indf1	equ	0xFE7
  2136                           fsr1h	equ	0xFE2
  2137                           fsr1l	equ	0xFE1
  2138                           indf2	equ	0xFDF
  2139                           postinc2	equ	0xFDE
  2140                           postdec2	equ	0xFDD
  2141                           fsr2h	equ	0xFDA
  2142                           fsr2l	equ	0xFD9
  2143                           status	equ	0xFD8
  2144                           
  2145 ;; *************** function ___lwmod *****************
  2146 ;; Defined at:
  2147 ;;		line 8 in file "C:\Program Files (x86)\Microchip\xc8\v1.35\sources\common\lwmod.c"
  2148 ;; Parameters:    Size  Location     Type
  2149 ;;  dividend        2    7[BANK0 ] unsigned int 
  2150 ;;  divisor         2    9[BANK0 ] unsigned int 
  2151 ;; Auto vars:     Size  Location     Type
  2152 ;;  counter         1   11[BANK0 ] unsigned char 
  2153 ;; Return value:  Size  Location     Type
  2154 ;;                  2    7[BANK0 ] unsigned int 
  2155 ;; Registers used:
  2156 ;;		wreg, status,2, status,0
  2157 ;; Tracked objects:
  2158 ;;		On entry : 0/0
  2159 ;;		On exit  : 0/0
  2160 ;;		Unchanged: 0/0
  2161 ;; Data sizes:     COMRAM   BANK0   BANK1   BANK2
  2162 ;;      Params:         0       4       0       0
  2163 ;;      Locals:         0       1       0       0
  2164 ;;      Temps:          0       0       0       0
  2165 ;;      Totals:         0       5       0       0
  2166 ;;Total ram usage:        5 bytes
  2167 ;; Hardware stack levels used:    1
  2168 ;; Hardware stack levels required when called:   11
  2169 ;; This function calls:
  2170 ;;		Nothing
  2171 ;; This function is called by:
  2172 ;;		_sprintf
  2173 ;; This function uses a non-reentrant model
  2174 ;;
  2175                           
  2176                           	psect	text8
  2177  001C88                     __ptext8:
  2178                           	opt stack 0
  2179  001C88                     ___lwmod:
  2180                           	opt stack 18
  2181                           
  2182                           ; BSR set to: 0
  2183                           ;incstack = 0
  2184  001C88  0100               	movlb	0	; () banked
  2185  001C8A  5169               	movf	___lwmod@divisor& (0+255),w,b
  2186  001C8C  0100               	movlb	0	; () banked
  2187  001C8E  116A               	iorwf	(___lwmod@divisor+1)& (0+255),w,b
  2188  001C90  B4D8               	btfsc	status,2,c
  2189  001C92  D026               	goto	l1073
  2190                           
  2191                           ; BSR set to: 0
  2192  001C94  0E01               	movlw	1
  2193  001C96  0100               	movlb	0	; () banked
  2194  001C98  6F6B               	movwf	___lwmod@counter& (0+255),b
  2195  001C9A  D006               	goto	l4454
  2196  001C9C                     l4452:
  2197                           
  2198                           ; BSR set to: 0
  2199  001C9C  0100               	movlb	0	; () banked
  2200  001C9E  90D8               	bcf	status,0,c
  2201  001CA0  3769               	rlcf	___lwmod@divisor& (0+255),f,b
  2202  001CA2  376A               	rlcf	(___lwmod@divisor+1)& (0+255),f,b
  2203  001CA4  0100               	movlb	0	; () banked
  2204  001CA6  2B6B               	incf	___lwmod@counter& (0+255),f,b
  2205  001CA8                     l4454:
  2206                           
  2207                           ; BSR set to: 0
  2208  001CA8  0100               	movlb	0	; () banked
  2209  001CAA  AF6A               	btfss	(___lwmod@divisor+1)& (0+255),7,b
  2210  001CAC  D7F7               	goto	l4452
  2211  001CAE                     l4456:
  2212                           
  2213                           ; BSR set to: 0
  2214  001CAE  0100               	movlb	0	; () banked
  2215  001CB0  5169               	movf	___lwmod@divisor& (0+255),w,b
  2216  001CB2  0100               	movlb	0	; () banked
  2217  001CB4  5D67               	subwf	___lwmod@dividend& (0+255),w,b
  2218  001CB6  0100               	movlb	0	; () banked
  2219  001CB8  516A               	movf	(___lwmod@divisor+1)& (0+255),w,b
  2220  001CBA  0100               	movlb	0	; () banked
  2221  001CBC  5968               	subwfb	(___lwmod@dividend+1)& (0+255),w,b
  2222  001CBE  A0D8               	btfss	status,0,c
  2223  001CC0  D008               	goto	l4460
  2224                           
  2225                           ; BSR set to: 0
  2226  001CC2  0100               	movlb	0	; () banked
  2227  001CC4  5169               	movf	___lwmod@divisor& (0+255),w,b
  2228  001CC6  0100               	movlb	0	; () banked
  2229  001CC8  5F67               	subwf	___lwmod@dividend& (0+255),f,b
  2230  001CCA  0100               	movlb	0	; () banked
  2231  001CCC  516A               	movf	(___lwmod@divisor+1)& (0+255),w,b
  2232  001CCE  0100               	movlb	0	; () banked
  2233  001CD0  5B68               	subwfb	(___lwmod@dividend+1)& (0+255),f,b
  2234  001CD2                     l4460:
  2235                           
  2236                           ; BSR set to: 0
  2237  001CD2  0100               	movlb	0	; () banked
  2238  001CD4  90D8               	bcf	status,0,c
  2239  001CD6  336A               	rrcf	(___lwmod@divisor+1)& (0+255),f,b
  2240  001CD8  3369               	rrcf	___lwmod@divisor& (0+255),f,b
  2241                           
  2242                           ; BSR set to: 0
  2243  001CDA  0100               	movlb	0	; () banked
  2244  001CDC  2F6B               	decfsz	___lwmod@counter& (0+255),f,b
  2245  001CDE  D7E7               	goto	l4456
  2246  001CE0                     l1073:
  2247                           
  2248                           ; BSR set to: 0
  2249  001CE0  C067  F067         	movff	___lwmod@dividend,?___lwmod
  2250  001CE4  C068  F068         	movff	___lwmod@dividend+1,?___lwmod+1
  2251                           
  2252                           ; BSR set to: 0
  2253  001CE8  0012               	return		;funcret
  2254  001CEA                     __end_of___lwmod:
  2255                           	opt stack 0
  2256                           tblptru	equ	0xFF8
  2257                           tblptrh	equ	0xFF7
  2258                           tblptrl	equ	0xFF6
  2259                           tablat	equ	0xFF5
  2260                           prodh	equ	0xFF4
  2261                           prodl	equ	0xFF3
  2262                           intcon	equ	0xFF2
  2263                           postinc0	equ	0xFEE
  2264                           wreg	equ	0xFE8
  2265                           indf1	equ	0xFE7
  2266                           fsr1h	equ	0xFE2
  2267                           fsr1l	equ	0xFE1
  2268                           indf2	equ	0xFDF
  2269                           postinc2	equ	0xFDE
  2270                           postdec2	equ	0xFDD
  2271                           fsr2h	equ	0xFDA
  2272                           fsr2l	equ	0xFD9
  2273                           status	equ	0xFD8
  2274                           
  2275 ;; *************** function ___lwdiv *****************
  2276 ;; Defined at:
  2277 ;;		line 8 in file "C:\Program Files (x86)\Microchip\xc8\v1.35\sources\common\lwdiv.c"
  2278 ;; Parameters:    Size  Location     Type
  2279 ;;  dividend        2    0[BANK0 ] unsigned int 
  2280 ;;  divisor         2    2[BANK0 ] unsigned int 
  2281 ;; Auto vars:     Size  Location     Type
  2282 ;;  quotient        2    5[BANK0 ] unsigned int 
  2283 ;;  counter         1    4[BANK0 ] unsigned char 
  2284 ;; Return value:  Size  Location     Type
  2285 ;;                  2    0[BANK0 ] unsigned int 
  2286 ;; Registers used:
  2287 ;;		wreg, status,2, status,0
  2288 ;; Tracked objects:
  2289 ;;		On entry : 0/0
  2290 ;;		On exit  : 0/0
  2291 ;;		Unchanged: 0/0
  2292 ;; Data sizes:     COMRAM   BANK0   BANK1   BANK2
  2293 ;;      Params:         0       4       0       0
  2294 ;;      Locals:         0       3       0       0
  2295 ;;      Temps:          0       0       0       0
  2296 ;;      Totals:         0       7       0       0
  2297 ;;Total ram usage:        7 bytes
  2298 ;; Hardware stack levels used:    1
  2299 ;; Hardware stack levels required when called:   11
  2300 ;; This function calls:
  2301 ;;		Nothing
  2302 ;; This function is called by:
  2303 ;;		_sprintf
  2304 ;; This function uses a non-reentrant model
  2305 ;;
  2306                           
  2307                           	psect	text9
  2308  001B34                     __ptext9:
  2309                           	opt stack 0
  2310  001B34                     ___lwdiv:
  2311                           	opt stack 18
  2312                           
  2313                           ; BSR set to: 0
  2314                           ;incstack = 0
  2315  001B34  0E00               	movlw	0
  2316  001B36  0100               	movlb	0	; () banked
  2317  001B38  6F66               	movwf	(___lwdiv@quotient+1)& (0+255),b
  2318  001B3A  0E00               	movlw	0
  2319  001B3C  6F65               	movwf	___lwdiv@quotient& (0+255),b
  2320                           
  2321                           ; BSR set to: 0
  2322  001B3E  0100               	movlb	0	; () banked
  2323  001B40  5162               	movf	___lwdiv@divisor& (0+255),w,b
  2324  001B42  0100               	movlb	0	; () banked
  2325  001B44  1163               	iorwf	(___lwdiv@divisor+1)& (0+255),w,b
  2326  001B46  B4D8               	btfsc	status,2,c
  2327  001B48  D02C               	goto	l1063
  2328                           
  2329                           ; BSR set to: 0
  2330  001B4A  0E01               	movlw	1
  2331  001B4C  0100               	movlb	0	; () banked
  2332  001B4E  6F64               	movwf	___lwdiv@counter& (0+255),b
  2333  001B50  D006               	goto	l4434
  2334  001B52                     l4432:
  2335                           
  2336                           ; BSR set to: 0
  2337  001B52  0100               	movlb	0	; () banked
  2338  001B54  90D8               	bcf	status,0,c
  2339  001B56  3762               	rlcf	___lwdiv@divisor& (0+255),f,b
  2340  001B58  3763               	rlcf	(___lwdiv@divisor+1)& (0+255),f,b
  2341  001B5A  0100               	movlb	0	; () banked
  2342  001B5C  2B64               	incf	___lwdiv@counter& (0+255),f,b
  2343  001B5E                     l4434:
  2344                           
  2345                           ; BSR set to: 0
  2346  001B5E  0100               	movlb	0	; () banked
  2347  001B60  AF63               	btfss	(___lwdiv@divisor+1)& (0+255),7,b
  2348  001B62  D7F7               	goto	l4432
  2349  001B64                     l4436:
  2350                           
  2351                           ; BSR set to: 0
  2352  001B64  0100               	movlb	0	; () banked
  2353  001B66  90D8               	bcf	status,0,c
  2354  001B68  3765               	rlcf	___lwdiv@quotient& (0+255),f,b
  2355  001B6A  3766               	rlcf	(___lwdiv@quotient+1)& (0+255),f,b
  2356                           
  2357                           ; BSR set to: 0
  2358  001B6C  0100               	movlb	0	; () banked
  2359  001B6E  5162               	movf	___lwdiv@divisor& (0+255),w,b
  2360  001B70  0100               	movlb	0	; () banked
  2361  001B72  5D60               	subwf	___lwdiv@dividend& (0+255),w,b
  2362  001B74  0100               	movlb	0	; () banked
  2363  001B76  5163               	movf	(___lwdiv@divisor+1)& (0+255),w,b
  2364  001B78  0100               	movlb	0	; () banked
  2365  001B7A  5961               	subwfb	(___lwdiv@dividend+1)& (0+255),w,b
  2366  001B7C  A0D8               	btfss	status,0,c
  2367  001B7E  D00A               	goto	l4444
  2368                           
  2369                           ; BSR set to: 0
  2370  001B80  0100               	movlb	0	; () banked
  2371  001B82  5162               	movf	___lwdiv@divisor& (0+255),w,b
  2372  001B84  0100               	movlb	0	; () banked
  2373  001B86  5F60               	subwf	___lwdiv@dividend& (0+255),f,b
  2374  001B88  0100               	movlb	0	; () banked
  2375  001B8A  5163               	movf	(___lwdiv@divisor+1)& (0+255),w,b
  2376  001B8C  0100               	movlb	0	; () banked
  2377  001B8E  5B61               	subwfb	(___lwdiv@dividend+1)& (0+255),f,b
  2378                           
  2379                           ; BSR set to: 0
  2380  001B90  0100               	movlb	0	; () banked
  2381  001B92  8165               	bsf	___lwdiv@quotient& (0+255),0,b
  2382  001B94                     l4444:
  2383                           
  2384                           ; BSR set to: 0
  2385  001B94  0100               	movlb	0	; () banked
  2386  001B96  90D8               	bcf	status,0,c
  2387  001B98  3363               	rrcf	(___lwdiv@divisor+1)& (0+255),f,b
  2388  001B9A  3362               	rrcf	___lwdiv@divisor& (0+255),f,b
  2389                           
  2390                           ; BSR set to: 0
  2391  001B9C  0100               	movlb	0	; () banked
  2392  001B9E  2F64               	decfsz	___lwdiv@counter& (0+255),f,b
  2393  001BA0  D7E1               	goto	l4436
  2394  001BA2                     l1063:
  2395                           
  2396                           ; BSR set to: 0
  2397  001BA2  C065  F060         	movff	___lwdiv@quotient,?___lwdiv
  2398  001BA6  C066  F061         	movff	___lwdiv@quotient+1,?___lwdiv+1
  2399                           
  2400                           ; BSR set to: 0
  2401  001BAA  0012               	return		;funcret
  2402  001BAC                     __end_of___lwdiv:
  2403                           	opt stack 0
  2404                           tblptru	equ	0xFF8
  2405                           tblptrh	equ	0xFF7
  2406                           tblptrl	equ	0xFF6
  2407                           tablat	equ	0xFF5
  2408                           prodh	equ	0xFF4
  2409                           prodl	equ	0xFF3
  2410                           intcon	equ	0xFF2
  2411                           postinc0	equ	0xFEE
  2412                           wreg	equ	0xFE8
  2413                           indf1	equ	0xFE7
  2414                           fsr1h	equ	0xFE2
  2415                           fsr1l	equ	0xFE1
  2416                           indf2	equ	0xFDF
  2417                           postinc2	equ	0xFDE
  2418                           postdec2	equ	0xFDD
  2419                           fsr2h	equ	0xFDA
  2420                           fsr2l	equ	0xFD9
  2421                           status	equ	0xFD8
  2422                           
  2423 ;; *************** function _cdcPuts *****************
  2424 ;; Defined at:
  2425 ;;		line 122 in file "CDCLib/cdc.c"
  2426 ;; Parameters:    Size  Location     Type
  2427 ;;  data            2    9[BANK0 ] PTR unsigned char 
  2428 ;;		 -> main@text(256), 
  2429 ;; Auto vars:     Size  Location     Type
  2430 ;;		None
  2431 ;; Return value:  Size  Location     Type
  2432 ;;		None               void
  2433 ;; Registers used:
  2434 ;;		wreg, fsr1l, fsr1h, fsr2l, fsr2h, status,2, status,0, prodl, prodh, cstack
  2435 ;; Tracked objects:
  2436 ;;		On entry : 0/0
  2437 ;;		On exit  : 0/0
  2438 ;;		Unchanged: 0/0
  2439 ;; Data sizes:     COMRAM   BANK0   BANK1   BANK2
  2440 ;;      Params:         0       2       0       0
  2441 ;;      Locals:         0       0       0       0
  2442 ;;      Temps:          0       0       0       0
  2443 ;;      Totals:         0       2       0       0
  2444 ;;Total ram usage:        2 bytes
  2445 ;; Hardware stack levels used:    1
  2446 ;; Hardware stack levels required when called:   13
  2447 ;; This function calls:
  2448 ;;		_CDCTxService
  2449 ;;		_putsUSBUSART
  2450 ;; This function is called by:
  2451 ;;		_main
  2452 ;; This function uses a non-reentrant model
  2453 ;;
  2454                           
  2455                           	psect	text10
  2456  00202C                     __ptext10:
  2457                           	opt stack 0
  2458  00202C                     _cdcPuts:
  2459                           	opt stack 17
  2460                           
  2461                           ;cdc.c: 123: if( (cdc_trf_state == 0) == 1)
  2462                           
  2463                           ; BSR set to: 0
  2464                           ;incstack = 0
  2465  00202C  5024               	movf	_cdc_trf_state,w,c
  2466  00202E  A4D8               	btfss	status,2,c
  2467  002030  0012               	return	
  2468                           
  2469                           ;cdc.c: 124: {
  2470                           ;cdc.c: 125: putsUSBUSART(data);
  2471  002032  C069  F060         	movff	cdcPuts@data,putsUSBUSART@data
  2472  002036  C06A  F061         	movff	cdcPuts@data+1,putsUSBUSART@data+1
  2473  00203A  ECA3  F00E         	call	_putsUSBUSART	;wreg free
  2474                           
  2475                           ;cdc.c: 126: CDCTxService();
  2476  00203E  EC9F  F005         	call	_CDCTxService	;wreg free
  2477  002042  0012               	return	
  2478  002044                     __end_of_cdcPuts:
  2479                           	opt stack 0
  2480                           tblptru	equ	0xFF8
  2481                           tblptrh	equ	0xFF7
  2482                           tblptrl	equ	0xFF6
  2483                           tablat	equ	0xFF5
  2484                           prodh	equ	0xFF4
  2485                           prodl	equ	0xFF3
  2486                           intcon	equ	0xFF2
  2487                           postinc0	equ	0xFEE
  2488                           wreg	equ	0xFE8
  2489                           indf1	equ	0xFE7
  2490                           fsr1h	equ	0xFE2
  2491                           fsr1l	equ	0xFE1
  2492                           indf2	equ	0xFDF
  2493                           postinc2	equ	0xFDE
  2494                           postdec2	equ	0xFDD
  2495                           fsr2h	equ	0xFDA
  2496                           fsr2l	equ	0xFD9
  2497                           status	equ	0xFD8
  2498                           
  2499 ;; *************** function _putsUSBUSART *****************
  2500 ;; Defined at:
  2501 ;;		line 629 in file "CDCLib/usb_device_cdc.c"
  2502 ;; Parameters:    Size  Location     Type
  2503 ;;  data            2    0[BANK0 ] PTR unsigned char 
  2504 ;;		 -> main@text(256), 
  2505 ;; Auto vars:     Size  Location     Type
  2506 ;;  pData           2    2[BANK0 ] PTR unsigned char 
  2507 ;;		 -> main@text(256), 
  2508 ;;  len             1    4[BANK0 ] unsigned char 
  2509 ;; Return value:  Size  Location     Type
  2510 ;;		None               void
  2511 ;; Registers used:
  2512 ;;		wreg, fsr2l, fsr2h, status,2, status,0
  2513 ;; Tracked objects:
  2514 ;;		On entry : 0/0
  2515 ;;		On exit  : 0/0
  2516 ;;		Unchanged: 0/0
  2517 ;; Data sizes:     COMRAM   BANK0   BANK1   BANK2
  2518 ;;      Params:         0       2       0       0
  2519 ;;      Locals:         0       3       0       0
  2520 ;;      Temps:          0       0       0       0
  2521 ;;      Totals:         0       5       0       0
  2522 ;;Total ram usage:        5 bytes
  2523 ;; Hardware stack levels used:    1
  2524 ;; Hardware stack levels required when called:   11
  2525 ;; This function calls:
  2526 ;;		Nothing
  2527 ;; This function is called by:
  2528 ;;		_cdcPuts
  2529 ;; This function uses a non-reentrant model
  2530 ;;
  2531                           
  2532                           	psect	text11
  2533  001D46                     __ptext11:
  2534                           	opt stack 0
  2535  001D46                     _putsUSBUSART:
  2536                           	opt stack 18
  2537                           
  2538                           ;usb_device_cdc.c: 631: uint8_t len;
  2539                           ;usb_device_cdc.c: 632: char *pData;
  2540                           ;usb_device_cdc.c: 657: {PIE2bits.USBIE = 0;};
  2541                           
  2542                           ;incstack = 0
  2543  001D46  94A0               	bcf	4000,2,c	;volatile
  2544                           
  2545                           ;usb_device_cdc.c: 658: if(cdc_trf_state != 0)
  2546  001D48  5024               	movf	_cdc_trf_state,w,c
  2547  001D4A  B4D8               	btfsc	status,2,c
  2548  001D4C  D002               	goto	l4338
  2549                           
  2550                           ;usb_device_cdc.c: 659: {
  2551                           ;usb_device_cdc.c: 660: {PIE2bits.USBIE = 1;};
  2552  001D4E  84A0               	bsf	4000,2,c	;volatile
  2553                           
  2554                           ;usb_device_cdc.c: 661: return;
  2555  001D50  0012               	return	
  2556  001D52                     l4338:
  2557                           
  2558                           ;usb_device_cdc.c: 662: }
  2559                           ;usb_device_cdc.c: 668: len = 0;
  2560  001D52  0E00               	movlw	0
  2561  001D54  0100               	movlb	0	; () banked
  2562  001D56  6F64               	movwf	putsUSBUSART@len& (0+255),b
  2563                           
  2564                           ; BSR set to: 0
  2565                           ;usb_device_cdc.c: 669: pData = data;
  2566  001D58  C060  F062         	movff	putsUSBUSART@data,putsUSBUSART@pData
  2567  001D5C  C061  F063         	movff	putsUSBUSART@data+1,putsUSBUSART@pData+1
  2568  001D60                     l4342:
  2569                           
  2570                           ; BSR set to: 0
  2571                           ;usb_device_cdc.c: 671: {
  2572                           ;usb_device_cdc.c: 672: len++;
  2573  001D60  0100               	movlb	0	; () banked
  2574  001D62  2B64               	incf	putsUSBUSART@len& (0+255),f,b
  2575                           
  2576                           ; BSR set to: 0
  2577                           ;usb_device_cdc.c: 673: if(len == 255) break;
  2578  001D64  0100               	movlb	0	; () banked
  2579  001D66  2964               	incf	putsUSBUSART@len& (0+255),w,b
  2580  001D68  B4D8               	btfsc	status,2,c
  2581  001D6A  D00A               	goto	l4350
  2582                           
  2583                           ; BSR set to: 0
  2584                           ;usb_device_cdc.c: 674: }while(*pData++);
  2585                           
  2586                           ; BSR set to: 0
  2587                           
  2588                           ; BSR set to: 0
  2589  001D6C  C062  FFD9         	movff	putsUSBUSART@pData,fsr2l
  2590  001D70  C063  FFDA         	movff	putsUSBUSART@pData+1,fsr2h
  2591  001D74  0100               	movlb	0	; () banked
  2592  001D76  4B62               	infsnz	putsUSBUSART@pData& (0+255),f,b
  2593  001D78  2B63               	incf	(putsUSBUSART@pData+1)& (0+255),f,b
  2594  001D7A  50DF               	movf	indf2,w,c
  2595  001D7C  A4D8               	btfss	status,2,c
  2596  001D7E  D7F0               	goto	l4342
  2597  001D80                     l4350:
  2598                           
  2599                           ; BSR set to: 0
  2600                           ;usb_device_cdc.c: 682: { pCDCSrc.bRam = (uint8_t*)data; cdc_tx_len = len; cdc_mem_type 
      +                          = 0x01; cdc_trf_state = 1; };
  2601  001D80  C060  F0E1         	movff	putsUSBUSART@data,_pCDCSrc
  2602  001D84  C061  F0E2         	movff	putsUSBUSART@data+1,_pCDCSrc+1
  2603                           
  2604                           ; BSR set to: 0
  2605  001D88  C064  F025         	movff	putsUSBUSART@len,_cdc_tx_len
  2606                           
  2607                           ; BSR set to: 0
  2608  001D8C  0E01               	movlw	1
  2609  001D8E  0100               	movlb	0	; () banked
  2610  001D90  6FEB               	movwf	_cdc_mem_type& (0+255),b
  2611                           
  2612                           ; BSR set to: 0
  2613  001D92  0E01               	movlw	1
  2614  001D94  6E24               	movwf	_cdc_trf_state,c
  2615                           
  2616                           ; BSR set to: 0
  2617                           ;usb_device_cdc.c: 683: {PIE2bits.USBIE = 1;};
  2618  001D96  84A0               	bsf	4000,2,c	;volatile
  2619  001D98  0012               	return		;funcret
  2620  001D9A                     __end_of_putsUSBUSART:
  2621                           	opt stack 0
  2622                           tblptru	equ	0xFF8
  2623                           tblptrh	equ	0xFF7
  2624                           tblptrl	equ	0xFF6
  2625                           tablat	equ	0xFF5
  2626                           prodh	equ	0xFF4
  2627                           prodl	equ	0xFF3
  2628                           intcon	equ	0xFF2
  2629                           postinc0	equ	0xFEE
  2630                           wreg	equ	0xFE8
  2631                           indf1	equ	0xFE7
  2632                           fsr1h	equ	0xFE2
  2633                           fsr1l	equ	0xFE1
  2634                           indf2	equ	0xFDF
  2635                           postinc2	equ	0xFDE
  2636                           postdec2	equ	0xFDD
  2637                           fsr2h	equ	0xFDA
  2638                           fsr2l	equ	0xFD9
  2639                           status	equ	0xFD8
  2640                           
  2641 ;; *************** function _CDCTxService *****************
  2642 ;; Defined at:
  2643 ;;		line 836 in file "CDCLib/usb_device_cdc.c"
  2644 ;; Parameters:    Size  Location     Type
  2645 ;;		None
  2646 ;; Auto vars:     Size  Location     Type
  2647 ;;  byte_to_send    1    8[BANK0 ] unsigned char 
  2648 ;;  i               1    7[BANK0 ] unsigned char 
  2649 ;; Return value:  Size  Location     Type
  2650 ;;		None               void
  2651 ;; Registers used:
  2652 ;;		wreg, fsr1l, fsr1h, fsr2l, fsr2h, status,2, status,0, prodl, prodh, cstack
  2653 ;; Tracked objects:
  2654 ;;		On entry : 0/0
  2655 ;;		On exit  : 0/0
  2656 ;;		Unchanged: 0/0
  2657 ;; Data sizes:     COMRAM   BANK0   BANK1   BANK2
  2658 ;;      Params:         0       0       0       0
  2659 ;;      Locals:         0       2       0       0
  2660 ;;      Temps:          0       0       0       0
  2661 ;;      Totals:         0       2       0       0
  2662 ;;Total ram usage:        2 bytes
  2663 ;; Hardware stack levels used:    1
  2664 ;; Hardware stack levels required when called:   12
  2665 ;; This function calls:
  2666 ;;		_USBTransferOnePacket
  2667 ;; This function is called by:
  2668 ;;		_update
  2669 ;;		_cdcPuts
  2670 ;; This function uses a non-reentrant model
  2671 ;;
  2672                           
  2673                           	psect	text12
  2674  000B3E                     __ptext12:
  2675                           	opt stack 0
  2676  000B3E                     _CDCTxService:
  2677                           	opt stack 17
  2678                           
  2679                           ;usb_device_cdc.c: 838: uint8_t byte_to_send;
  2680                           ;usb_device_cdc.c: 839: uint8_t i;
  2681                           ;usb_device_cdc.c: 841: {PIE2bits.USBIE = 0;};
  2682                           
  2683                           ;incstack = 0
  2684  000B3E  94A0               	bcf	4000,2,c	;volatile
  2685                           
  2686                           ;usb_device_cdc.c: 843: {};
  2687                           ;usb_device_cdc.c: 845: if(((CDCDataInHandle != 0x0000) && ((*(volatile uint8_t*)CDCData
      +                          InHandle & 0x80) != 0x00)))
  2688  000B40  0100               	movlb	0	; () banked
  2689  000B42  51E4               	movf	_CDCDataInHandle& (0+255),w,b
  2690  000B44  0100               	movlb	0	; () banked
  2691  000B46  11E5               	iorwf	(_CDCDataInHandle+1)& (0+255),w,b
  2692  000B48  B4D8               	btfsc	status,2,c
  2693  000B4A  D009               	goto	l4368
  2694                           
  2695                           ; BSR set to: 0
  2696  000B4C  C0E4  FFD9         	movff	_CDCDataInHandle,fsr2l
  2697  000B50  C0E5  FFDA         	movff	_CDCDataInHandle+1,fsr2h
  2698  000B54  0100               	movlb	0	; () banked
  2699  000B56  AEDF               	btfss	indf2,7,c
  2700  000B58  D002               	goto	l4368
  2701                           
  2702                           ; BSR set to: 0
  2703                           ;usb_device_cdc.c: 846: {
  2704                           ;usb_device_cdc.c: 847: {PIE2bits.USBIE = 1;};
  2705  000B5A  84A0               	bsf	4000,2,c	;volatile
  2706                           
  2707                           ;usb_device_cdc.c: 848: return;
  2708  000B5C  0012               	return	
  2709  000B5E                     l4368:
  2710                           
  2711                           ; BSR set to: 0
  2712                           ;usb_device_cdc.c: 849: }
  2713                           ;usb_device_cdc.c: 856: if(cdc_trf_state == 3)
  2714  000B5E  0E03               	movlw	3
  2715  000B60  1824               	xorwf	_cdc_trf_state,w,c
  2716  000B62  A4D8               	btfss	status,2,c
  2717  000B64  D002               	goto	l526
  2718                           
  2719                           ; BSR set to: 0
  2720                           ;usb_device_cdc.c: 857: cdc_trf_state = 0;
  2721  000B66  0E00               	movlw	0
  2722  000B68  6E24               	movwf	_cdc_trf_state,c
  2723  000B6A                     l526:
  2724                           
  2725                           ; BSR set to: 0
  2726                           ;usb_device_cdc.c: 862: if(cdc_trf_state == 0)
  2727  000B6A  5024               	movf	_cdc_trf_state,w,c
  2728  000B6C  A4D8               	btfss	status,2,c
  2729  000B6E  D002               	goto	l4374
  2730                           
  2731                           ; BSR set to: 0
  2732                           ;usb_device_cdc.c: 863: {
  2733                           ;usb_device_cdc.c: 864: {PIE2bits.USBIE = 1;};
  2734  000B70  84A0               	bsf	4000,2,c	;volatile
  2735                           
  2736                           ;usb_device_cdc.c: 865: return;
  2737  000B72  0012               	return	
  2738  000B74                     l4374:
  2739                           
  2740                           ; BSR set to: 0
  2741                           ;usb_device_cdc.c: 866: }
  2742                           ;usb_device_cdc.c: 871: if(cdc_trf_state == 2)
  2743  000B74  0E02               	movlw	2
  2744  000B76  1824               	xorwf	_cdc_trf_state,w,c
  2745  000B78  A4D8               	btfss	status,2,c
  2746  000B7A  D016               	goto	l4380
  2747                           
  2748                           ; BSR set to: 0
  2749                           ;usb_device_cdc.c: 872: {
  2750                           ;usb_device_cdc.c: 873: CDCDataInHandle = USBTransferOnePacket(2,1,(0),0);
  2751  000B7C  0E01               	movlw	1
  2752  000B7E  0100               	movlb	0	; () banked
  2753  000B80  6F60               	movwf	USBTransferOnePacket@dir& (0+255),b
  2754  000B82  0E00               	movlw	0
  2755  000B84  0100               	movlb	0	; () banked
  2756  000B86  6F61               	movwf	USBTransferOnePacket@data& (0+255),b
  2757  000B88  0E00               	movlw	0
  2758  000B8A  0100               	movlb	0	; () banked
  2759  000B8C  6F62               	movwf	(USBTransferOnePacket@data+1)& (0+255),b
  2760  000B8E  0E00               	movlw	0
  2761  000B90  0100               	movlb	0	; () banked
  2762  000B92  6F63               	movwf	USBTransferOnePacket@len& (0+255),b
  2763  000B94  0E02               	movlw	2
  2764  000B96  EC44  F009         	call	_USBTransferOnePacket
  2765  000B9A  C060  F0E4         	movff	?_USBTransferOnePacket,_CDCDataInHandle
  2766  000B9E  C061  F0E5         	movff	?_USBTransferOnePacket+1,_CDCDataInHandle+1
  2767                           
  2768                           ;usb_device_cdc.c: 875: cdc_trf_state = 3;
  2769  000BA2  0E03               	movlw	3
  2770  000BA4  6E24               	movwf	_cdc_trf_state,c
  2771                           
  2772                           ;usb_device_cdc.c: 876: }
  2773  000BA6  D06B               	goto	l4424
  2774  000BA8                     l4380:
  2775                           
  2776                           ;usb_device_cdc.c: 877: else if(cdc_trf_state == 1)
  2777  000BA8  0424               	decf	_cdc_trf_state,w,c
  2778  000BAA  A4D8               	btfss	status,2,c
  2779  000BAC  D068               	goto	l4424
  2780                           
  2781                           ;usb_device_cdc.c: 878: {
  2782                           ;usb_device_cdc.c: 882: if(cdc_tx_len > sizeof(cdc_data_tx))
  2783  000BAE  0E40               	movlw	64
  2784  000BB0  6425               	cpfsgt	_cdc_tx_len,c
  2785  000BB2  D004               	goto	l531
  2786                           
  2787                           ;usb_device_cdc.c: 883: byte_to_send = sizeof(cdc_data_tx);
  2788  000BB4  0E40               	movlw	64
  2789  000BB6  0100               	movlb	0	; () banked
  2790  000BB8  6F68               	movwf	CDCTxService@byte_to_send& (0+255),b
  2791  000BBA  D002               	goto	l4386
  2792  000BBC                     l531:
  2793                           
  2794                           ;usb_device_cdc.c: 884: else
  2795                           ;usb_device_cdc.c: 885: byte_to_send = cdc_tx_len;
  2796  000BBC  C025  F068         	movff	_cdc_tx_len,CDCTxService@byte_to_send
  2797  000BC0                     l4386:
  2798                           
  2799                           ;usb_device_cdc.c: 890: cdc_tx_len = cdc_tx_len - byte_to_send;
  2800  000BC0  0100               	movlb	0	; () banked
  2801  000BC2  5168               	movf	CDCTxService@byte_to_send& (0+255),w,b
  2802  000BC4  0800               	sublw	0
  2803  000BC6  2425               	addwf	_cdc_tx_len,w,c
  2804  000BC8  6E25               	movwf	_cdc_tx_len,c
  2805                           
  2806                           ;usb_device_cdc.c: 892: pCDCDst.bRam = (uint8_t*)&cdc_data_tx;
  2807  000BCA  0E40               	movlw	64
  2808  000BCC  0100               	movlb	0	; () banked
  2809  000BCE  6FDE               	movwf	_pCDCDst& (0+255),b
  2810  000BD0  0E02               	movlw	2
  2811  000BD2  0100               	movlb	0	; () banked
  2812  000BD4  6FDF               	movwf	(_pCDCDst+1)& (0+255),b
  2813                           
  2814                           ; BSR set to: 0
  2815                           ;usb_device_cdc.c: 894: i = byte_to_send;
  2816  000BD6  C068  F067         	movff	CDCTxService@byte_to_send,CDCTxService@i
  2817                           
  2818                           ; BSR set to: 0
  2819                           ;usb_device_cdc.c: 895: if(cdc_mem_type == 0x00)
  2820  000BDA  0100               	movlb	0	; () banked
  2821  000BDC  51EB               	movf	_cdc_mem_type& (0+255),w,b
  2822  000BDE  B4D8               	btfsc	status,2,c
  2823  000BE0  D013               	goto	l4402
  2824  000BE2  D02A               	goto	l4412
  2825  000BE4                     l4394:
  2826                           
  2827                           ; BSR set to: 0
  2828                           ;usb_device_cdc.c: 898: {
  2829                           ;usb_device_cdc.c: 899: *pCDCDst.bRam = *pCDCSrc.bRom;
  2830  000BE4  C0E1  FFD9         	movff	_pCDCSrc,fsr2l
  2831  000BE8  C0E2  FFDA         	movff	_pCDCSrc+1,fsr2h
  2832  000BEC  C0DE  FFE1         	movff	_pCDCDst,fsr1l
  2833  000BF0  C0DF  FFE2         	movff	_pCDCDst+1,fsr1h
  2834  000BF4  CFDF FFE7          	movff	indf2,indf1
  2835                           
  2836                           ; BSR set to: 0
  2837                           ;usb_device_cdc.c: 900: pCDCDst.bRam++;
  2838  000BF8  0100               	movlb	0	; () banked
  2839  000BFA  4BDE               	infsnz	_pCDCDst& (0+255),f,b
  2840  000BFC  2BDF               	incf	(_pCDCDst+1)& (0+255),f,b
  2841                           
  2842                           ; BSR set to: 0
  2843                           ;usb_device_cdc.c: 901: pCDCSrc.bRom++;
  2844  000BFE  0100               	movlb	0	; () banked
  2845  000C00  4BE1               	infsnz	_pCDCSrc& (0+255),f,b
  2846  000C02  2BE2               	incf	(_pCDCSrc+1)& (0+255),f,b
  2847                           
  2848                           ; BSR set to: 0
  2849                           ;usb_device_cdc.c: 902: i--;
  2850  000C04  0100               	movlb	0	; () banked
  2851  000C06  0767               	decf	CDCTxService@i& (0+255),f,b
  2852  000C08                     l4402:
  2853                           
  2854                           ; BSR set to: 0
  2855  000C08  0100               	movlb	0	; () banked
  2856  000C0A  5167               	movf	CDCTxService@i& (0+255),w,b
  2857  000C0C  0100               	movlb	0	; () banked
  2858  000C0E  B4D8               	btfsc	status,2,c
  2859  000C10  D018               	goto	l4414
  2860  000C12  D7E8               	goto	l4394
  2861  000C14                     l4404:
  2862                           
  2863                           ; BSR set to: 0
  2864                           ;usb_device_cdc.c: 908: {
  2865                           ;usb_device_cdc.c: 909: *pCDCDst.bRam = *pCDCSrc.bRam;
  2866  000C14  C0E1  FFD9         	movff	_pCDCSrc,fsr2l
  2867  000C18  C0E2  FFDA         	movff	_pCDCSrc+1,fsr2h
  2868  000C1C  C0DE  FFE1         	movff	_pCDCDst,fsr1l
  2869  000C20  C0DF  FFE2         	movff	_pCDCDst+1,fsr1h
  2870  000C24  CFDF FFE7          	movff	indf2,indf1
  2871                           
  2872                           ; BSR set to: 0
  2873                           ;usb_device_cdc.c: 910: pCDCDst.bRam++;
  2874  000C28  0100               	movlb	0	; () banked
  2875  000C2A  4BDE               	infsnz	_pCDCDst& (0+255),f,b
  2876  000C2C  2BDF               	incf	(_pCDCDst+1)& (0+255),f,b
  2877                           
  2878                           ; BSR set to: 0
  2879                           ;usb_device_cdc.c: 911: pCDCSrc.bRam++;
  2880  000C2E  0100               	movlb	0	; () banked
  2881  000C30  4BE1               	infsnz	_pCDCSrc& (0+255),f,b
  2882  000C32  2BE2               	incf	(_pCDCSrc+1)& (0+255),f,b
  2883                           
  2884                           ; BSR set to: 0
  2885                           ;usb_device_cdc.c: 912: i--;
  2886  000C34  0100               	movlb	0	; () banked
  2887  000C36  0767               	decf	CDCTxService@i& (0+255),f,b
  2888  000C38                     l4412:
  2889                           
  2890                           ; BSR set to: 0
  2891  000C38  0100               	movlb	0	; () banked
  2892  000C3A  5167               	movf	CDCTxService@i& (0+255),w,b
  2893  000C3C  0100               	movlb	0	; () banked
  2894  000C3E  A4D8               	btfss	status,2,c
  2895  000C40  D7E9               	goto	l4404
  2896  000C42                     l4414:
  2897                           
  2898                           ; BSR set to: 0
  2899                           ;usb_device_cdc.c: 913: }
  2900                           ;usb_device_cdc.c: 914: }
  2901                           ;usb_device_cdc.c: 920: if(cdc_tx_len == 0)
  2902  000C42  5025               	movf	_cdc_tx_len,w,c
  2903  000C44  A4D8               	btfss	status,2,c
  2904  000C46  D009               	goto	l4422
  2905                           
  2906                           ; BSR set to: 0
  2907                           ;usb_device_cdc.c: 921: {
  2908                           ;usb_device_cdc.c: 922: if(byte_to_send == 64)
  2909  000C48  0E40               	movlw	64
  2910  000C4A  0100               	movlb	0	; () banked
  2911  000C4C  1968               	xorwf	CDCTxService@byte_to_send& (0+255),w,b
  2912  000C4E  A4D8               	btfss	status,2,c
  2913  000C50  D002               	goto	l4420
  2914                           
  2915                           ; BSR set to: 0
  2916                           ;usb_device_cdc.c: 923: cdc_trf_state = 2;
  2917  000C52  0E02               	movlw	2
  2918  000C54  D001               	goto	L1
  2919  000C56                     l4420:
  2920                           
  2921                           ; BSR set to: 0
  2922                           ;usb_device_cdc.c: 924: else
  2923                           ;usb_device_cdc.c: 925: cdc_trf_state = 3;
  2924  000C56  0E03               	movlw	3
  2925  000C58                     L1:
  2926  000C58  6E24               	movwf	_cdc_trf_state,c
  2927  000C5A                     l4422:
  2928                           
  2929                           ; BSR set to: 0
  2930                           ;usb_device_cdc.c: 926: }
  2931                           ;usb_device_cdc.c: 927: CDCDataInHandle = USBTransferOnePacket(2,1,(uint8_t*)&cdc_data_t
      +                          x,byte_to_send);
  2932  000C5A  0E01               	movlw	1
  2933  000C5C  0100               	movlb	0	; () banked
  2934  000C5E  6F60               	movwf	USBTransferOnePacket@dir& (0+255),b
  2935  000C60  0E40               	movlw	64
  2936  000C62  0100               	movlb	0	; () banked
  2937  000C64  6F61               	movwf	USBTransferOnePacket@data& (0+255),b
  2938  000C66  0E02               	movlw	2
  2939  000C68  0100               	movlb	0	; () banked
  2940  000C6A  6F62               	movwf	(USBTransferOnePacket@data+1)& (0+255),b
  2941  000C6C  C068  F063         	movff	CDCTxService@byte_to_send,USBTransferOnePacket@len
  2942  000C70  0E02               	movlw	2
  2943  000C72  EC44  F009         	call	_USBTransferOnePacket
  2944  000C76  C060  F0E4         	movff	?_USBTransferOnePacket,_CDCDataInHandle
  2945  000C7A  C061  F0E5         	movff	?_USBTransferOnePacket+1,_CDCDataInHandle+1
  2946  000C7E                     l4424:
  2947                           
  2948                           ;usb_device_cdc.c: 929: }
  2949                           ;usb_device_cdc.c: 931: {PIE2bits.USBIE = 1;};
  2950  000C7E  84A0               	bsf	4000,2,c	;volatile
  2951  000C80  0012               	return		;funcret
  2952  000C82                     __end_of_CDCTxService:
  2953                           	opt stack 0
  2954                           tblptru	equ	0xFF8
  2955                           tblptrh	equ	0xFF7
  2956                           tblptrl	equ	0xFF6
  2957                           tablat	equ	0xFF5
  2958                           prodh	equ	0xFF4
  2959                           prodl	equ	0xFF3
  2960                           intcon	equ	0xFF2
  2961                           postinc0	equ	0xFEE
  2962                           wreg	equ	0xFE8
  2963                           indf1	equ	0xFE7
  2964                           fsr1h	equ	0xFE2
  2965                           fsr1l	equ	0xFE1
  2966                           indf2	equ	0xFDF
  2967                           postinc2	equ	0xFDE
  2968                           postdec2	equ	0xFDD
  2969                           fsr2h	equ	0xFDA
  2970                           fsr2l	equ	0xFD9
  2971                           status	equ	0xFD8
  2972                           
  2973 ;; *************** function _cdcGets *****************
  2974 ;; Defined at:
  2975 ;;		line 136 in file "CDCLib/cdc.c"
  2976 ;; Parameters:    Size  Location     Type
  2977 ;;  data            2   11[BANK0 ] PTR unsigned char 
  2978 ;;		 -> main@buff(64), 
  2979 ;;  length          2   13[BANK0 ] int 
  2980 ;; Auto vars:     Size  Location     Type
  2981 ;;		None
  2982 ;; Return value:  Size  Location     Type
  2983 ;;                  2   11[BANK0 ] int 
  2984 ;; Registers used:
  2985 ;;		wreg, fsr1l, fsr1h, fsr2l, fsr2h, status,2, status,0, prodl, prodh, cstack
  2986 ;; Tracked objects:
  2987 ;;		On entry : 0/0
  2988 ;;		On exit  : 0/0
  2989 ;;		Unchanged: 0/0
  2990 ;; Data sizes:     COMRAM   BANK0   BANK1   BANK2
  2991 ;;      Params:         0       4       0       0
  2992 ;;      Locals:         0       0       0       0
  2993 ;;      Temps:          0       1       0       0
  2994 ;;      Totals:         0       5       0       0
  2995 ;;Total ram usage:        5 bytes
  2996 ;; Hardware stack levels used:    1
  2997 ;; Hardware stack levels required when called:   13
  2998 ;; This function calls:
  2999 ;;		_getsUSBUSART
  3000 ;; This function is called by:
  3001 ;;		_main
  3002 ;; This function uses a non-reentrant model
  3003 ;;
  3004                           
  3005                           	psect	text13
  3006  001EF6                     __ptext13:
  3007                           	opt stack 0
  3008  001EF6                     _cdcGets:
  3009                           	opt stack 17
  3010                           
  3011                           ;cdc.c: 137: if( (cdc_trf_state == 0) == 1)
  3012                           
  3013                           ;incstack = 0
  3014  001EF6  5024               	movf	_cdc_trf_state,w,c
  3015  001EF8  A4D8               	btfss	status,2,c
  3016  001EFA  D010               	goto	l4494
  3017                           
  3018                           ;cdc.c: 138: {
  3019                           ;cdc.c: 139: return getsUSBUSART(data, length);
  3020  001EFC  C06B  F067         	movff	cdcGets@data,getsUSBUSART@buffer
  3021  001F00  C06C  F068         	movff	cdcGets@data+1,getsUSBUSART@buffer+1
  3022  001F04  C06D  F069         	movff	cdcGets@length,getsUSBUSART@len
  3023  001F08  ECDD  F00B         	call	_getsUSBUSART	;wreg free
  3024  001F0C  0100               	movlb	0	; () banked
  3025  001F0E  6F6F               	movwf	??_cdcGets& (0+255),b
  3026  001F10  0100               	movlb	0	; () banked
  3027  001F12  516F               	movf	??_cdcGets& (0+255),w,b
  3028  001F14  0100               	movlb	0	; () banked
  3029  001F16  6F6B               	movwf	?_cdcGets& (0+255),b
  3030  001F18  6B6C               	clrf	(?_cdcGets+1)& (0+255),b
  3031                           
  3032                           ; BSR set to: 0
  3033  001F1A  0012               	return	
  3034  001F1C                     l4494:
  3035                           
  3036                           ;cdc.c: 140: }
  3037                           ;cdc.c: 142: return 0;
  3038  001F1C  0E00               	movlw	0
  3039  001F1E  0100               	movlb	0	; () banked
  3040  001F20  6F6C               	movwf	(?_cdcGets+1)& (0+255),b
  3041  001F22  0E00               	movlw	0
  3042  001F24  6F6B               	movwf	?_cdcGets& (0+255),b
  3043  001F26  0012               	return	
  3044  001F28                     __end_of_cdcGets:
  3045                           	opt stack 0
  3046                           tblptru	equ	0xFF8
  3047                           tblptrh	equ	0xFF7
  3048                           tblptrl	equ	0xFF6
  3049                           tablat	equ	0xFF5
  3050                           prodh	equ	0xFF4
  3051                           prodl	equ	0xFF3
  3052                           intcon	equ	0xFF2
  3053                           postinc0	equ	0xFEE
  3054                           wreg	equ	0xFE8
  3055                           indf1	equ	0xFE7
  3056                           fsr1h	equ	0xFE2
  3057                           fsr1l	equ	0xFE1
  3058                           indf2	equ	0xFDF
  3059                           postinc2	equ	0xFDE
  3060                           postdec2	equ	0xFDD
  3061                           fsr2h	equ	0xFDA
  3062                           fsr2l	equ	0xFD9
  3063                           status	equ	0xFD8
  3064                           
  3065 ;; *************** function _getsUSBUSART *****************
  3066 ;; Defined at:
  3067 ;;		line 485 in file "CDCLib/usb_device_cdc.c"
  3068 ;; Parameters:    Size  Location     Type
  3069 ;;  buffer          2    7[BANK0 ] PTR unsigned char 
  3070 ;;		 -> main@buff(64), 
  3071 ;;  len             1    9[BANK0 ] unsigned char 
  3072 ;; Auto vars:     Size  Location     Type
  3073 ;;		None
  3074 ;; Return value:  Size  Location     Type
  3075 ;;                  1    wreg      unsigned char 
  3076 ;; Registers used:
  3077 ;;		wreg, fsr1l, fsr1h, fsr2l, fsr2h, status,2, status,0, prodl, prodh, cstack
  3078 ;; Tracked objects:
  3079 ;;		On entry : 0/0
  3080 ;;		On exit  : 0/0
  3081 ;;		Unchanged: 0/0
  3082 ;; Data sizes:     COMRAM   BANK0   BANK1   BANK2
  3083 ;;      Params:         0       3       0       0
  3084 ;;      Locals:         0       0       0       0
  3085 ;;      Temps:          0       1       0       0
  3086 ;;      Totals:         0       4       0       0
  3087 ;;Total ram usage:        4 bytes
  3088 ;; Hardware stack levels used:    1
  3089 ;; Hardware stack levels required when called:   12
  3090 ;; This function calls:
  3091 ;;		_USBTransferOnePacket
  3092 ;; This function is called by:
  3093 ;;		_cdcGets
  3094 ;; This function uses a non-reentrant model
  3095 ;;
  3096                           
  3097                           	psect	text14
  3098  0017BA                     __ptext14:
  3099                           	opt stack 0
  3100  0017BA                     _getsUSBUSART:
  3101                           	opt stack 17
  3102                           
  3103                           ;usb_device_cdc.c: 487: cdc_rx_len = 0;
  3104                           
  3105                           ; BSR set to: 0
  3106                           ;incstack = 0
  3107  0017BA  0E00               	movlw	0
  3108  0017BC  6E23               	movwf	_cdc_rx_len,c
  3109                           
  3110                           ;usb_device_cdc.c: 489: if(!((CDCDataOutHandle != 0x0000) && ((*(volatile uint8_t*)CDCDa
      +                          taOutHandle & 0x80) != 0x00)))
  3111  0017BE  5015               	movf	_CDCDataOutHandle,w,c
  3112  0017C0  1016               	iorwf	_CDCDataOutHandle+1,w,c
  3113  0017C2  B4D8               	btfsc	status,2,c
  3114  0017C4  D006               	goto	l4314
  3115  0017C6  C015  FFD9         	movff	_CDCDataOutHandle,fsr2l
  3116  0017CA  C016  FFDA         	movff	_CDCDataOutHandle+1,fsr2h
  3117  0017CE  BEDF               	btfsc	indf2,7,c
  3118  0017D0  D044               	goto	l4328
  3119  0017D2                     l4314:
  3120                           
  3121                           ;usb_device_cdc.c: 490: {
  3122                           ;usb_device_cdc.c: 495: if(len > (((volatile BDT_ENTRY*)CDCDataOutHandle)->CNT))
  3123  0017D2  EE20 F001          	lfsr	2,1
  3124  0017D6  5015               	movf	_CDCDataOutHandle,w,c
  3125  0017D8  26D9               	addwf	fsr2l,f,c
  3126  0017DA  5016               	movf	_CDCDataOutHandle+1,w,c
  3127  0017DC  22DA               	addwfc	fsr2h,f,c
  3128  0017DE  0100               	movlb	0	; () banked
  3129  0017E0  5169               	movf	getsUSBUSART@len& (0+255),w,b
  3130  0017E2  5CDE               	subwf	postinc2,w,c
  3131  0017E4  B0D8               	btfsc	status,0,c
  3132  0017E6  D009               	goto	l4318
  3133                           
  3134                           ; BSR set to: 0
  3135                           ;usb_device_cdc.c: 496: len = (((volatile BDT_ENTRY*)CDCDataOutHandle)->CNT);
  3136  0017E8  EE20 F001          	lfsr	2,1
  3137  0017EC  5015               	movf	_CDCDataOutHandle,w,c
  3138  0017EE  26D9               	addwf	fsr2l,f,c
  3139  0017F0  5016               	movf	_CDCDataOutHandle+1,w,c
  3140  0017F2  22DA               	addwfc	fsr2h,f,c
  3141  0017F4  50DF               	movf	indf2,w,c
  3142  0017F6  0100               	movlb	0	; () banked
  3143  0017F8  6F69               	movwf	getsUSBUSART@len& (0+255),b
  3144  0017FA                     l4318:
  3145                           
  3146                           ; BSR set to: 0
  3147                           ;usb_device_cdc.c: 501: for(cdc_rx_len = 0; cdc_rx_len < len; cdc_rx_len++)
  3148  0017FA  0E00               	movlw	0
  3149  0017FC  6E23               	movwf	_cdc_rx_len,c
  3150  0017FE  D015               	goto	l4324
  3151  001800                     l4320:
  3152                           
  3153                           ; BSR set to: 0
  3154                           ;usb_device_cdc.c: 502: buffer[cdc_rx_len] = cdc_data_rx[cdc_rx_len];
  3155  001800  5023               	movf	_cdc_rx_len,w,c
  3156  001802  0D01               	mullw	1
  3157  001804  0E80               	movlw	128
  3158  001806  24F3               	addwf	prodl,w,c
  3159  001808  6ED9               	movwf	fsr2l,c
  3160  00180A  0E02               	movlw	2
  3161  00180C  20F4               	addwfc	prodh,w,c
  3162  00180E  6EDA               	movwf	fsr2h,c
  3163  001810  5023               	movf	_cdc_rx_len,w,c
  3164  001812  0D01               	mullw	1
  3165  001814  50F3               	movf	prodl,w,c
  3166  001816  0100               	movlb	0	; () banked
  3167  001818  2567               	addwf	getsUSBUSART@buffer& (0+255),w,b
  3168  00181A  6EE1               	movwf	fsr1l,c
  3169  00181C  50F4               	movf	prodh,w,c
  3170  00181E  0100               	movlb	0	; () banked
  3171  001820  2168               	addwfc	(getsUSBUSART@buffer+1)& (0+255),w,b
  3172  001822  6EE2               	movwf	fsr1h,c
  3173  001824  CFDF FFE7          	movff	indf2,indf1
  3174                           
  3175                           ; BSR set to: 0
  3176  001828  2A23               	incf	_cdc_rx_len,f,c
  3177  00182A                     l4324:
  3178                           
  3179                           ; BSR set to: 0
  3180  00182A  0100               	movlb	0	; () banked
  3181  00182C  5169               	movf	getsUSBUSART@len& (0+255),w,b
  3182  00182E  5C23               	subwf	_cdc_rx_len,w,c
  3183  001830  A0D8               	btfss	status,0,c
  3184  001832  D7E6               	goto	l4320
  3185                           
  3186                           ; BSR set to: 0
  3187                           ;usb_device_cdc.c: 508: CDCDataOutHandle = USBTransferOnePacket(2,0,(uint8_t*)&cdc_data_
      +                          rx,sizeof(cdc_data_rx));
  3188                           
  3189                           ; BSR set to: 0
  3190  001834  0E00               	movlw	0
  3191  001836  0100               	movlb	0	; () banked
  3192  001838  6F60               	movwf	USBTransferOnePacket@dir& (0+255),b
  3193  00183A  0E80               	movlw	128
  3194  00183C  0100               	movlb	0	; () banked
  3195  00183E  6F61               	movwf	USBTransferOnePacket@data& (0+255),b
  3196  001840  0E02               	movlw	2
  3197  001842  0100               	movlb	0	; () banked
  3198  001844  6F62               	movwf	(USBTransferOnePacket@data+1)& (0+255),b
  3199  001846  0E40               	movlw	64
  3200  001848  0100               	movlb	0	; () banked
  3201  00184A  6F63               	movwf	USBTransferOnePacket@len& (0+255),b
  3202  00184C  0E02               	movlw	2
  3203  00184E  EC44  F009         	call	_USBTransferOnePacket
  3204  001852  C060  F015         	movff	?_USBTransferOnePacket,_CDCDataOutHandle
  3205  001856  C061  F016         	movff	?_USBTransferOnePacket+1,_CDCDataOutHandle+1
  3206  00185A                     l4328:
  3207                           
  3208                           ;usb_device_cdc.c: 510: }
  3209                           ;usb_device_cdc.c: 512: return cdc_rx_len;
  3210  00185A  5023               	movf	_cdc_rx_len,w,c
  3211  00185C  0012               	return	
  3212  00185E                     __end_of_getsUSBUSART:
  3213                           	opt stack 0
  3214                           tblptru	equ	0xFF8
  3215                           tblptrh	equ	0xFF7
  3216                           tblptrl	equ	0xFF6
  3217                           tablat	equ	0xFF5
  3218                           prodh	equ	0xFF4
  3219                           prodl	equ	0xFF3
  3220                           intcon	equ	0xFF2
  3221                           postinc0	equ	0xFEE
  3222                           wreg	equ	0xFE8
  3223                           indf1	equ	0xFE7
  3224                           fsr1h	equ	0xFE2
  3225                           fsr1l	equ	0xFE1
  3226                           indf2	equ	0xFDF
  3227                           postinc2	equ	0xFDE
  3228                           postdec2	equ	0xFDD
  3229                           fsr2h	equ	0xFDA
  3230                           fsr2l	equ	0xFD9
  3231                           status	equ	0xFD8
  3232                           
  3233 ;; *************** function _USBTransferOnePacket *****************
  3234 ;; Defined at:
  3235 ;;		line 1013 in file "CDCLib/usb_device.c"
  3236 ;; Parameters:    Size  Location     Type
  3237 ;;  ep              1    wreg     unsigned char 
  3238 ;;  dir             1    0[BANK0 ] unsigned char 
  3239 ;;  data            2    1[BANK0 ] PTR unsigned char 
  3240 ;;		 -> cdc_data_tx(64), cdc_data_rx(64), NULL(0), 
  3241 ;;  len             1    3[BANK0 ] unsigned char 
  3242 ;; Auto vars:     Size  Location     Type
  3243 ;;  ep              1    4[BANK0 ] unsigned char 
  3244 ;;  handle          2    5[BANK0 ] PTR volatile struct __BD
  3245 ;;		 -> NULL(0), BDT(48), 
  3246 ;; Return value:  Size  Location     Type
  3247 ;;                  2    0[BANK0 ] PTR void 
  3248 ;; Registers used:
  3249 ;;		wreg, fsr2l, fsr2h, status,2, status,0, prodl, prodh
  3250 ;; Tracked objects:
  3251 ;;		On entry : 0/0
  3252 ;;		On exit  : 0/0
  3253 ;;		Unchanged: 0/0
  3254 ;; Data sizes:     COMRAM   BANK0   BANK1   BANK2
  3255 ;;      Params:         0       4       0       0
  3256 ;;      Locals:         0       3       0       0
  3257 ;;      Temps:          0       0       0       0
  3258 ;;      Totals:         0       7       0       0
  3259 ;;Total ram usage:        7 bytes
  3260 ;; Hardware stack levels used:    1
  3261 ;; Hardware stack levels required when called:   11
  3262 ;; This function calls:
  3263 ;;		Nothing
  3264 ;; This function is called by:
  3265 ;;		_getsUSBUSART
  3266 ;;		_CDCTxService
  3267 ;;		_USBCDCEventHandler
  3268 ;; This function uses a non-reentrant model
  3269 ;;
  3270                           
  3271                           	psect	text15
  3272  001288                     __ptext15:
  3273                           	opt stack 0
  3274  001288                     _USBTransferOnePacket:
  3275                           	opt stack 17
  3276                           
  3277                           ;incstack = 0
  3278                           ;USBTransferOnePacket@ep stored from wreg
  3279  001288  0100               	movlb	0	; () banked
  3280  00128A  6F64               	movwf	USBTransferOnePacket@ep& (0+255),b
  3281                           
  3282                           ;usb_device.c: 1015: volatile BDT_ENTRY* handle;
  3283                           ;usb_device.c: 1018: if(dir != 0)
  3284  00128C  0100               	movlb	0	; () banked
  3285  00128E  5160               	movf	USBTransferOnePacket@dir& (0+255),w,b
  3286  001290  0100               	movlb	0	; () banked
  3287  001292  B4D8               	btfsc	status,2,c
  3288  001294  D008               	goto	l4190
  3289                           
  3290                           ; BSR set to: 0
  3291                           ;usb_device.c: 1019: {
  3292                           ;usb_device.c: 1021: handle = pBDTEntryIn[ep];
  3293  001296  0100               	movlb	0	; () banked
  3294  001298  5164               	movf	USBTransferOnePacket@ep& (0+255),w,b
  3295  00129A  0D02               	mullw	2
  3296  00129C  0E0F               	movlw	low _pBDTEntryIn
  3297  00129E  24F3               	addwf	prodl,w,c
  3298  0012A0  6ED9               	movwf	fsr2l,c
  3299  0012A2  0E00               	movlw	high _pBDTEntryIn
  3300  0012A4  D007               	goto	L2
  3301  0012A6                     l4190:
  3302                           
  3303                           ; BSR set to: 0
  3304                           ;usb_device.c: 1023: else
  3305                           ;usb_device.c: 1024: {
  3306                           ;usb_device.c: 1026: handle = pBDTEntryOut[ep];
  3307  0012A6  0100               	movlb	0	; () banked
  3308  0012A8  5164               	movf	USBTransferOnePacket@ep& (0+255),w,b
  3309  0012AA  0D02               	mullw	2
  3310  0012AC  0ECA               	movlw	low _pBDTEntryOut
  3311  0012AE  24F3               	addwf	prodl,w,c
  3312  0012B0  6ED9               	movwf	fsr2l,c
  3313  0012B2  0E00               	movlw	high _pBDTEntryOut
  3314  0012B4                     L2:
  3315  0012B4  20F4               	addwfc	prodh,w,c
  3316  0012B6  6EDA               	movwf	fsr2h,c
  3317  0012B8  CFDE F065          	movff	postinc2,USBTransferOnePacket@handle
  3318  0012BC  CFDD F066          	movff	postdec2,USBTransferOnePacket@handle+1
  3319                           
  3320                           ; BSR set to: 0
  3321                           ;usb_device.c: 1027: }
  3322                           ;usb_device.c: 1031: if(handle == 0)
  3323                           
  3324                           ; BSR set to: 0
  3325  0012C0  0100               	movlb	0	; () banked
  3326  0012C2  5165               	movf	USBTransferOnePacket@handle& (0+255),w,b
  3327  0012C4  0100               	movlb	0	; () banked
  3328  0012C6  1166               	iorwf	(USBTransferOnePacket@handle+1)& (0+255),w,b
  3329  0012C8  A4D8               	btfss	status,2,c
  3330  0012CA  D007               	goto	l4198
  3331                           
  3332                           ; BSR set to: 0
  3333                           ;usb_device.c: 1032: {
  3334                           ;usb_device.c: 1033: return 0;
  3335  0012CC  0E00               	movlw	0
  3336  0012CE  0100               	movlb	0	; () banked
  3337  0012D0  6F60               	movwf	?_USBTransferOnePacket& (0+255),b
  3338  0012D2  0E00               	movlw	0
  3339  0012D4  0100               	movlb	0	; () banked
  3340  0012D6  6F61               	movwf	(?_USBTransferOnePacket+1)& (0+255),b
  3341                           
  3342                           ; BSR set to: 0
  3343  0012D8  0012               	return	
  3344  0012DA                     l4198:
  3345                           
  3346                           ; BSR set to: 0
  3347                           ;usb_device.c: 1034: }
  3348                           ;usb_device.c: 1047: handle->ADR = ((uint16_t)(data));
  3349  0012DA  0100               	movlb	0	; () banked
  3350  0012DC  EE20 F002          	lfsr	2,2
  3351  0012E0  5165               	movf	USBTransferOnePacket@handle& (0+255),w,b
  3352  0012E2  26D9               	addwf	fsr2l,f,c
  3353  0012E4  5166               	movf	(USBTransferOnePacket@handle+1)& (0+255),w,b
  3354  0012E6  22DA               	addwfc	fsr2h,f,c
  3355  0012E8  C061  FFDE         	movff	USBTransferOnePacket@data,postinc2
  3356  0012EC  C062  FFDD         	movff	USBTransferOnePacket@data+1,postdec2
  3357                           
  3358                           ;usb_device.c: 1048: handle->CNT = len;
  3359  0012F0  0100               	movlb	0	; () banked
  3360  0012F2  EE20 F001          	lfsr	2,1
  3361  0012F6  5165               	movf	USBTransferOnePacket@handle& (0+255),w,b
  3362  0012F8  26D9               	addwf	fsr2l,f,c
  3363  0012FA  5166               	movf	(USBTransferOnePacket@handle+1)& (0+255),w,b
  3364  0012FC  22DA               	addwfc	fsr2h,f,c
  3365  0012FE  C063  FFDF         	movff	USBTransferOnePacket@len,indf2
  3366                           
  3367                           ; BSR set to: 0
  3368                           ;usb_device.c: 1049: handle->STAT.Val &= 0x40;
  3369  001302  C065  FFD9         	movff	USBTransferOnePacket@handle,fsr2l
  3370  001306  C066  FFDA         	movff	USBTransferOnePacket@handle+1,fsr2h
  3371  00130A  0E40               	movlw	64
  3372  00130C  16DF               	andwf	indf2,f,c
  3373                           
  3374                           ; BSR set to: 0
  3375                           ;usb_device.c: 1050: handle->STAT.Val |= (0x08 & 0x08);
  3376  00130E  C065  FFD9         	movff	USBTransferOnePacket@handle,fsr2l
  3377  001312  C066  FFDA         	movff	USBTransferOnePacket@handle+1,fsr2h
  3378  001316  0E00               	movlw	0
  3379  001318  86DB               	bsf	plusw2,3,c
  3380                           
  3381                           ; BSR set to: 0
  3382                           ;usb_device.c: 1051: handle->STAT.Val |= 0x80;
  3383  00131A  C065  FFD9         	movff	USBTransferOnePacket@handle,fsr2l
  3384  00131E  C066  FFDA         	movff	USBTransferOnePacket@handle+1,fsr2h
  3385  001322  0E00               	movlw	0
  3386  001324  8EDB               	bsf	plusw2,7,c
  3387                           
  3388                           ; BSR set to: 0
  3389                           ;usb_device.c: 1054: if(dir != 0)
  3390  001326  0100               	movlb	0	; () banked
  3391  001328  5160               	movf	USBTransferOnePacket@dir& (0+255),w,b
  3392  00132A  0100               	movlb	0	; () banked
  3393  00132C  B4D8               	btfsc	status,2,c
  3394  00132E  D008               	goto	l4210
  3395                           
  3396                           ; BSR set to: 0
  3397                           ;usb_device.c: 1055: {
  3398                           ;usb_device.c: 1057: {((uint8_t_VAL*)&pBDTEntryIn[ep])->Val ^= 0x0004;};
  3399  001330  0100               	movlb	0	; () banked
  3400  001332  5164               	movf	USBTransferOnePacket@ep& (0+255),w,b
  3401  001334  0D02               	mullw	2
  3402  001336  0E0F               	movlw	low _pBDTEntryIn
  3403  001338  24F3               	addwf	prodl,w,c
  3404  00133A  6ED9               	movwf	fsr2l,c
  3405  00133C  0E00               	movlw	high _pBDTEntryIn
  3406  00133E  D007               	goto	L3
  3407  001340                     l4210:
  3408                           
  3409                           ; BSR set to: 0
  3410                           ;usb_device.c: 1059: else
  3411                           ;usb_device.c: 1060: {
  3412                           ;usb_device.c: 1062: {((uint8_t_VAL*)&pBDTEntryOut[ep])->Val ^= 0x0004;};
  3413  001340  0100               	movlb	0	; () banked
  3414  001342  5164               	movf	USBTransferOnePacket@ep& (0+255),w,b
  3415  001344  0D02               	mullw	2
  3416  001346  0ECA               	movlw	low _pBDTEntryOut
  3417  001348  24F3               	addwf	prodl,w,c
  3418  00134A  6ED9               	movwf	fsr2l,c
  3419  00134C  0E00               	movlw	high _pBDTEntryOut
  3420  00134E                     L3:
  3421  00134E  20F4               	addwfc	prodh,w,c
  3422  001350  6EDA               	movwf	fsr2h,c
  3423  001352  0E04               	movlw	4
  3424  001354  1ADF               	xorwf	indf2,f,c
  3425                           
  3426                           ; BSR set to: 0
  3427                           ;usb_device.c: 1063: }
  3428                           ;usb_device.c: 1064: return (void*)handle;
  3429                           
  3430                           ; BSR set to: 0
  3431  001356  C065  F060         	movff	USBTransferOnePacket@handle,?_USBTransferOnePacket
  3432  00135A  C066  F061         	movff	USBTransferOnePacket@handle+1,?_USBTransferOnePacket+1
  3433  00135E  0012               	return	
  3434  001360                     __end_of_USBTransferOnePacket:
  3435                           	opt stack 0
  3436                           tblptru	equ	0xFF8
  3437                           tblptrh	equ	0xFF7
  3438                           tblptrl	equ	0xFF6
  3439                           tablat	equ	0xFF5
  3440                           prodh	equ	0xFF4
  3441                           prodl	equ	0xFF3
  3442                           intcon	equ	0xFF2
  3443                           postinc0	equ	0xFEE
  3444                           wreg	equ	0xFE8
  3445                           indf1	equ	0xFE7
  3446                           fsr1h	equ	0xFE2
  3447                           fsr1l	equ	0xFE1
  3448                           indf2	equ	0xFDF
  3449                           postinc2	equ	0xFDE
  3450                           postdec2	equ	0xFDD
  3451                           plusw2	equ	0xFDB
  3452                           fsr2h	equ	0xFDA
  3453                           fsr2l	equ	0xFD9
  3454                           status	equ	0xFD8
  3455                           
  3456 ;; *************** function _SYS_InterruptHigh *****************
  3457 ;; Defined at:
  3458 ;;		line 87 in file "CDCLib/system.c"
  3459 ;; Parameters:    Size  Location     Type
  3460 ;;		None
  3461 ;; Auto vars:     Size  Location     Type
  3462 ;;		None
  3463 ;; Return value:  Size  Location     Type
  3464 ;;		None               void
  3465 ;; Registers used:
  3466 ;;		wreg, fsr1l, fsr1h, fsr2l, fsr2h, status,2, status,0, tblptrl, tblptrh, tblptru, prodl, prodh, cstack
  3467 ;; Tracked objects:
  3468 ;;		On entry : 0/0
  3469 ;;		On exit  : 0/0
  3470 ;;		Unchanged: 0/0
  3471 ;; Data sizes:     COMRAM   BANK0   BANK1   BANK2
  3472 ;;      Params:         0       0       0       0
  3473 ;;      Locals:         0       0       0       0
  3474 ;;      Temps:         14       0       0       0
  3475 ;;      Totals:        14       0       0       0
  3476 ;;Total ram usage:       14 bytes
  3477 ;; Hardware stack levels used:    1
  3478 ;; Hardware stack levels required when called:   10
  3479 ;; This function calls:
  3480 ;;		_USBDeviceTasks
  3481 ;; This function is called by:
  3482 ;;		Interrupt level 2
  3483 ;; This function uses a non-reentrant model
  3484 ;;
  3485                           
  3486                           	psect	intcode
  3487  000008                     __pintcode:
  3488                           	opt stack 0
  3489  000008                     _SYS_InterruptHigh:
  3490                           	opt stack 17
  3491                           
  3492                           ; BSR set to: 0
  3493                           ;incstack = 0
  3494  000008  8255               	bsf	btemp,1,c	;set compiler interrupt flag (level 2)
  3495  00000A  CFFA F047          	movff	pclath,??_SYS_InterruptHigh
  3496  00000E  CFFB F048          	movff	pclatu,??_SYS_InterruptHigh+1
  3497  000012  CFE9 F049          	movff	fsr0l,??_SYS_InterruptHigh+2
  3498  000016  CFEA F04A          	movff	fsr0h,??_SYS_InterruptHigh+3
  3499  00001A  CFE1 F04B          	movff	fsr1l,??_SYS_InterruptHigh+4
  3500  00001E  CFE2 F04C          	movff	fsr1h,??_SYS_InterruptHigh+5
  3501  000022  CFD9 F04D          	movff	fsr2l,??_SYS_InterruptHigh+6
  3502  000026  CFDA F04E          	movff	fsr2h,??_SYS_InterruptHigh+7
  3503  00002A  CFF3 F04F          	movff	prodl,??_SYS_InterruptHigh+8
  3504  00002E  CFF4 F050          	movff	prodh,??_SYS_InterruptHigh+9
  3505  000032  CFF6 F051          	movff	tblptrl,??_SYS_InterruptHigh+10
  3506  000036  CFF7 F052          	movff	tblptrh,??_SYS_InterruptHigh+11
  3507  00003A  CFF8 F053          	movff	tblptru,??_SYS_InterruptHigh+12
  3508  00003E  CFF5 F054          	movff	tablat,??_SYS_InterruptHigh+13
  3509                           
  3510                           ;system.c: 90: USBDeviceTasks();
  3511  000042  EC41  F006         	call	_USBDeviceTasks	;wreg free
  3512  000046  C054  FFF5         	movff	??_SYS_InterruptHigh+13,tablat
  3513  00004A  C053  FFF8         	movff	??_SYS_InterruptHigh+12,tblptru
  3514  00004E  C052  FFF7         	movff	??_SYS_InterruptHigh+11,tblptrh
  3515  000052  C051  FFF6         	movff	??_SYS_InterruptHigh+10,tblptrl
  3516  000056  C050  FFF4         	movff	??_SYS_InterruptHigh+9,prodh
  3517  00005A  C04F  FFF3         	movff	??_SYS_InterruptHigh+8,prodl
  3518  00005E  C04E  FFDA         	movff	??_SYS_InterruptHigh+7,fsr2h
  3519  000062  C04D  FFD9         	movff	??_SYS_InterruptHigh+6,fsr2l
  3520  000066  C04C  FFE2         	movff	??_SYS_InterruptHigh+5,fsr1h
  3521  00006A  C04B  FFE1         	movff	??_SYS_InterruptHigh+4,fsr1l
  3522  00006E  C04A  FFEA         	movff	??_SYS_InterruptHigh+3,fsr0h
  3523  000072  C049  FFE9         	movff	??_SYS_InterruptHigh+2,fsr0l
  3524  000076  C048  FFFB         	movff	??_SYS_InterruptHigh+1,pclatu
  3525  00007A  C047  FFFA         	movff	??_SYS_InterruptHigh,pclath
  3526  00007E  9255               	bcf	btemp,1,c	;clear compiler interrupt flag (level 2)
  3527  000080  0011               	retfie		f
  3528  000082                     __end_of_SYS_InterruptHigh:
  3529                           	opt stack 0
  3530                           pclatu	equ	0xFFB
  3531                           pclath	equ	0xFFA
  3532                           tblptru	equ	0xFF8
  3533                           tblptrh	equ	0xFF7
  3534                           tblptrl	equ	0xFF6
  3535                           tablat	equ	0xFF5
  3536                           prodh	equ	0xFF4
  3537                           prodl	equ	0xFF3
  3538                           intcon	equ	0xFF2
  3539                           postinc0	equ	0xFEE
  3540                           fsr0h	equ	0xFEA
  3541                           fsr0l	equ	0xFE9
  3542                           wreg	equ	0xFE8
  3543                           indf1	equ	0xFE7
  3544                           fsr1h	equ	0xFE2
  3545                           fsr1l	equ	0xFE1
  3546                           indf2	equ	0xFDF
  3547                           postinc2	equ	0xFDE
  3548                           postdec2	equ	0xFDD
  3549                           plusw2	equ	0xFDB
  3550                           fsr2h	equ	0xFDA
  3551                           fsr2l	equ	0xFD9
  3552                           status	equ	0xFD8
  3553                           
  3554 ;; *************** function _USBDeviceTasks *****************
  3555 ;; Defined at:
  3556 ;;		line 495 in file "CDCLib/usb_device.c"
  3557 ;; Parameters:    Size  Location     Type
  3558 ;;		None
  3559 ;; Auto vars:     Size  Location     Type
  3560 ;;  i               1   27[COMRAM] unsigned char 
  3561 ;; Return value:  Size  Location     Type
  3562 ;;		None               void
  3563 ;; Registers used:
  3564 ;;		wreg, fsr1l, fsr1h, fsr2l, fsr2h, status,2, status,0, tblptrl, tblptrh, tblptru, prodl, prodh, cstack
  3565 ;; Tracked objects:
  3566 ;;		On entry : 0/0
  3567 ;;		On exit  : 0/0
  3568 ;;		Unchanged: 0/0
  3569 ;; Data sizes:     COMRAM   BANK0   BANK1   BANK2
  3570 ;;      Params:         0       0       0       0
  3571 ;;      Locals:         1       0       0       0
  3572 ;;      Temps:          0       0       0       0
  3573 ;;      Totals:         1       0       0       0
  3574 ;;Total ram usage:        1 bytes
  3575 ;; Hardware stack levels used:    1
  3576 ;; Hardware stack levels required when called:    9
  3577 ;; This function calls:
  3578 ;;		_USBCtrlEPAllowStatusStage
  3579 ;;		_USBCtrlEPService
  3580 ;;		_USBIncrement1msInternalTimers
  3581 ;;		_USBStallHandler
  3582 ;;		_USBSuspend
  3583 ;;		_USBWakeFromSuspend
  3584 ;;		_USER_USB_CALLBACK_EVENT_HANDLER
  3585 ;;		i2_USBDeviceInit
  3586 ;; This function is called by:
  3587 ;;		_SYS_InterruptHigh
  3588 ;; This function uses a non-reentrant model
  3589 ;;
  3590                           
  3591                           	psect	text17
  3592  000C82                     __ptext17:
  3593                           	opt stack 0
  3594  000C82                     _USBDeviceTasks:
  3595                           	opt stack 17
  3596                           
  3597                           ;usb_device.c: 497: uint8_t i;
  3598                           ;usb_device.c: 608: if(USBDeviceState == ATTACHED_STATE)
  3599                           
  3600                           ;incstack = 0
  3601  000C82  041F               	decf	_USBDeviceState,w,c	;volatile
  3602  000C84  B4D8               	btfsc	status,2,c
  3603                           
  3604                           ;usb_device.c: 609: {
  3605                           ;usb_device.c: 619: if(!UCONbits.SE0)
  3606  000C86  BA64               	btfsc	3940,5,c	;volatile
  3607  000C88  D006               	goto	i2l3856
  3608                           
  3609                           ;usb_device.c: 620: {
  3610                           ;usb_device.c: 626: {UIR = 0;};
  3611  000C8A  0E00               	movlw	0
  3612  000C8C  6E62               	movwf	3938,c	;volatile
  3613                           
  3614                           ;usb_device.c: 632: UIEbits.URSTIE = 1;
  3615  000C8E  8060               	bsf	3936,0,c	;volatile
  3616                           
  3617                           ;usb_device.c: 633: UIEbits.IDLEIE = 1;
  3618  000C90  8860               	bsf	3936,4,c	;volatile
  3619                           
  3620                           ;usb_device.c: 634: USBDeviceState = POWERED_STATE;
  3621  000C92  0E02               	movlw	2
  3622  000C94  6E1F               	movwf	_USBDeviceState,c	;volatile
  3623  000C96                     i2l3856:
  3624                           
  3625                           ;usb_device.c: 635: }
  3626                           ;usb_device.c: 636: }
  3627                           ;usb_device.c: 652: if(UIRbits.ACTVIF && UIEbits.ACTVIE)
  3628  000C96  B462               	btfsc	3938,2,c	;volatile
  3629  000C98  A460               	btfss	3936,2,c	;volatile
  3630  000C9A  D003               	goto	i2l3864
  3631                           
  3632                           ;usb_device.c: 653: {
  3633                           ;usb_device.c: 654: (UIR &= 0xFB);
  3634  000C9C  9462               	bcf	3938,2,c	;volatile
  3635                           
  3636                           ;usb_device.c: 658: USBWakeFromSuspend();
  3637  000C9E  EC48  F00F         	call	_USBWakeFromSuspend	;wreg free
  3638  000CA2                     i2l3864:
  3639                           
  3640                           ;usb_device.c: 660: }
  3641                           ;usb_device.c: 665: if(UCONbits.SUSPND==1)
  3642  000CA2  A264               	btfss	3940,1,c	;volatile
  3643  000CA4  D002               	goto	i2l178
  3644                           
  3645                           ;usb_device.c: 666: {
  3646                           ;usb_device.c: 667: {PIR2bits.USBIF = 0;};
  3647  000CA6  94A1               	bcf	4001,2,c	;volatile
  3648                           
  3649                           ;usb_device.c: 668: return;
  3650  000CA8  0012               	return	
  3651  000CAA                     i2l178:
  3652                           
  3653                           ;usb_device.c: 669: }
  3654                           ;usb_device.c: 681: if(UIRbits.URSTIF && UIEbits.URSTIE)
  3655  000CAA  B062               	btfsc	3938,0,c	;volatile
  3656  000CAC  A060               	btfss	3936,0,c	;volatile
  3657  000CAE  D006               	goto	i2l3878
  3658                           
  3659                           ;usb_device.c: 682: {
  3660                           ;usb_device.c: 683: USBDeviceInit();
  3661  000CB0  ECF7  F004         	call	i2_USBDeviceInit	;wreg free
  3662                           
  3663                           ;usb_device.c: 687: {PIE2bits.USBIE = 1;};
  3664  000CB4  84A0               	bsf	4000,2,c	;volatile
  3665                           
  3666                           ;usb_device.c: 689: USBDeviceState = DEFAULT_STATE;
  3667  000CB6  0E04               	movlw	4
  3668  000CB8  6E1F               	movwf	_USBDeviceState,c	;volatile
  3669                           
  3670                           ;usb_device.c: 699: (UIR &= 0xFE);
  3671  000CBA  9062               	bcf	3938,0,c	;volatile
  3672  000CBC                     i2l3878:
  3673                           
  3674                           ;usb_device.c: 700: }
  3675                           ;usb_device.c: 705: if(UIRbits.IDLEIF && UIEbits.IDLEIE)
  3676  000CBC  B862               	btfsc	3938,4,c	;volatile
  3677  000CBE  A860               	btfss	3936,4,c	;volatile
  3678  000CC0  D002               	goto	i2l3884
  3679                           
  3680                           ;usb_device.c: 706: {
  3681                           ;usb_device.c: 712: USBSuspend();
  3682  000CC2  EC94  F00F         	call	_USBSuspend	;wreg free
  3683  000CC6                     i2l3884:
  3684                           
  3685                           ;usb_device.c: 714: }
  3686                           ;usb_device.c: 726: if(UIRbits.SOFIF)
  3687  000CC6  AC62               	btfss	3938,6,c	;volatile
  3688  000CC8  D01A               	goto	i2l3902
  3689                           
  3690                           ;usb_device.c: 727: {
  3691                           ;usb_device.c: 729: if(UIEbits.SOFIE)
  3692  000CCA  AC60               	btfss	3936,6,c	;volatile
  3693  000CCC  D00E               	goto	i2l3890
  3694                           
  3695                           ;usb_device.c: 730: {
  3696                           ;usb_device.c: 731: USER_USB_CALLBACK_EVENT_HANDLER(EVENT_SOF,0,1);
  3697  000CCE  0E00               	movlw	0
  3698  000CD0  6E38               	movwf	USER_USB_CALLBACK_EVENT_HANDLER@event+1,c
  3699  000CD2  0E73               	movlw	115
  3700  000CD4  6E37               	movwf	USER_USB_CALLBACK_EVENT_HANDLER@event,c
  3701  000CD6  0E00               	movlw	0
  3702  000CD8  6E39               	movwf	USER_USB_CALLBACK_EVENT_HANDLER@pdata,c
  3703  000CDA  0E00               	movlw	0
  3704  000CDC  6E3A               	movwf	USER_USB_CALLBACK_EVENT_HANDLER@pdata+1,c
  3705  000CDE  0E00               	movlw	0
  3706  000CE0  6E3C               	movwf	USER_USB_CALLBACK_EVENT_HANDLER@size+1,c
  3707  000CE2  0E01               	movlw	1
  3708  000CE4  6E3B               	movwf	USER_USB_CALLBACK_EVENT_HANDLER@size,c
  3709  000CE6  ECD6  F00D         	call	_USER_USB_CALLBACK_EVENT_HANDLER	;wreg free
  3710  000CEA                     i2l3890:
  3711                           
  3712                           ;usb_device.c: 732: }
  3713                           ;usb_device.c: 733: (UIR &= 0xBF);
  3714  000CEA  9C62               	bcf	3938,6,c	;volatile
  3715                           
  3716                           ;usb_device.c: 736: USBIncrement1msInternalTimers();
  3717  000CEC  ECE9  F00F         	call	_USBIncrement1msInternalTimers	;wreg free
  3718                           
  3719                           ;usb_device.c: 753: if(USBStatusStageTimeoutCounter != 0u)
  3720  000CF0  5022               	movf	_USBStatusStageTimeoutCounter,w,c	;volatile
  3721  000CF2  A4D8               	btfss	status,2,c
  3722                           
  3723                           ;usb_device.c: 754: {
  3724                           ;usb_device.c: 755: USBStatusStageTimeoutCounter--;
  3725  000CF4  0622               	decf	_USBStatusStageTimeoutCounter,f,c	;volatile
  3726                           
  3727                           ;usb_device.c: 756: }
  3728                           ;usb_device.c: 762: if(USBStatusStageTimeoutCounter == 0)
  3729  000CF6  5022               	movf	_USBStatusStageTimeoutCounter,w,c	;volatile
  3730  000CF8  B4D8               	btfsc	status,2,c
  3731                           
  3732                           ;usb_device.c: 763: {
  3733                           ;usb_device.c: 764: USBCtrlEPAllowStatusStage();
  3734  000CFA  EC17  F00A         	call	_USBCtrlEPAllowStatusStage	;wreg free
  3735  000CFE                     i2l3902:
  3736                           
  3737                           ;usb_device.c: 765: }
  3738                           ;usb_device.c: 767: }
  3739                           ;usb_device.c: 769: if(UIRbits.STALLIF && UIEbits.STALLIE)
  3740  000CFE  BA62               	btfsc	3938,5,c	;volatile
  3741  000D00  AA60               	btfss	3936,5,c	;volatile
  3742  000D02  D002               	goto	i2l3908
  3743                           
  3744                           ;usb_device.c: 770: {
  3745                           ;usb_device.c: 771: USBStallHandler();
  3746  000D04  ECCD  F00E         	call	_USBStallHandler	;wreg free
  3747  000D08                     i2l3908:
  3748                           
  3749                           ;usb_device.c: 772: }
  3750                           ;usb_device.c: 774: if(UIRbits.UERRIF && UIEbits.UERRIE)
  3751  000D08  B262               	btfsc	3938,1,c	;volatile
  3752  000D0A  A260               	btfss	3936,1,c	;volatile
  3753  000D0C  D010               	goto	i2l3916
  3754                           
  3755                           ;usb_device.c: 775: {
  3756                           ;usb_device.c: 776: USER_USB_CALLBACK_EVENT_HANDLER(EVENT_BUS_ERROR,0,1);
  3757  000D0E  0E7F               	movlw	127
  3758  000D10  6E38               	movwf	USER_USB_CALLBACK_EVENT_HANDLER@event+1,c
  3759  000D12  6837               	setf	USER_USB_CALLBACK_EVENT_HANDLER@event,c
  3760  000D14  0E00               	movlw	0
  3761  000D16  6E39               	movwf	USER_USB_CALLBACK_EVENT_HANDLER@pdata,c
  3762  000D18  0E00               	movlw	0
  3763  000D1A  6E3A               	movwf	USER_USB_CALLBACK_EVENT_HANDLER@pdata+1,c
  3764  000D1C  0E00               	movlw	0
  3765  000D1E  6E3C               	movwf	USER_USB_CALLBACK_EVENT_HANDLER@size+1,c
  3766  000D20  0E01               	movlw	1
  3767  000D22  6E3B               	movwf	USER_USB_CALLBACK_EVENT_HANDLER@size,c
  3768  000D24  ECD6  F00D         	call	_USER_USB_CALLBACK_EVENT_HANDLER	;wreg free
  3769                           
  3770                           ;usb_device.c: 777: {UEIR = 0;};
  3771  000D28  0E00               	movlw	0
  3772  000D2A  010F               	movlb	15	; () banked
  3773  000D2C  6F5F               	movwf	95,b	;volatile
  3774  000D2E                     i2l3916:
  3775                           
  3776                           ;usb_device.c: 785: }
  3777                           ;usb_device.c: 792: if(USBDeviceState < DEFAULT_STATE)
  3778  000D2E  0E04               	movlw	4
  3779  000D30  601F               	cpfslt	_USBDeviceState,c	;volatile
  3780  000D32  D002               	goto	i2l188
  3781                           
  3782                           ;usb_device.c: 793: {
  3783                           ;usb_device.c: 794: {PIR2bits.USBIF = 0;};
  3784  000D34  94A1               	bcf	4001,2,c	;volatile
  3785                           
  3786                           ;usb_device.c: 795: return;
  3787  000D36  0012               	return	
  3788  000D38                     i2l188:
  3789                           
  3790                           ;usb_device.c: 796: }
  3791                           ;usb_device.c: 801: if(UIEbits.TRNIE)
  3792  000D38  A660               	btfss	3936,3,c	;volatile
  3793  000D3A  D039               	goto	i2l189
  3794                           
  3795                           ;usb_device.c: 802: {
  3796                           ;usb_device.c: 803: for(i = 0; i < 4u; i++)
  3797  000D3C  0E00               	movlw	0
  3798  000D3E  6E46               	movwf	USBDeviceTasks@i,c
  3799  000D40                     i2l3922:
  3800  000D40  0E03               	movlw	3
  3801  000D42  6446               	cpfsgt	USBDeviceTasks@i,c
  3802  000D44  D001               	goto	i2l190
  3803  000D46  D033               	goto	i2l189
  3804  000D48                     i2l190:
  3805                           
  3806                           ;usb_device.c: 804: {
  3807                           ;usb_device.c: 805: if(UIRbits.TRNIF)
  3808  000D48  A662               	btfss	3938,3,c	;volatile
  3809  000D4A  D031               	goto	i2l189
  3810                           
  3811                           ;usb_device.c: 806: {
  3812                           ;usb_device.c: 808: USTATcopy.Val = USTAT;
  3813  000D4C  CF63 F02A          	movff	3939,_USTATcopy	;volatile
  3814                           
  3815                           ;usb_device.c: 809: endpoint_number = USTATcopy.endpoint_number;
  3816  000D50  302A               	rrcf	_USTATcopy,w,c	;volatile
  3817  000D52  32E8               	rrcf	wreg,f,c
  3818  000D54  32E8               	rrcf	wreg,f,c
  3819  000D56  0B0F               	andlw	15
  3820  000D58  6E27               	movwf	_endpoint_number,c	;volatile
  3821                           
  3822                           ;usb_device.c: 811: (UIR &= 0xF7);
  3823  000D5A  9662               	bcf	3938,3,c	;volatile
  3824                           
  3825                           ;usb_device.c: 816: if(USTATcopy.direction == 0)
  3826  000D5C  B42A               	btfsc	_USTATcopy,2,c	;volatile
  3827  000D5E  D007               	goto	i2l3936
  3828                           
  3829                           ;usb_device.c: 817: {
  3830                           ;usb_device.c: 818: ep_data_out[endpoint_number].bits.ping_pong_state ^= 1;
  3831  000D60  5027               	movf	_endpoint_number,w,c	;volatile
  3832  000D62  0D01               	mullw	1
  3833  000D64  0EDB               	movlw	low _ep_data_out
  3834  000D66  24F3               	addwf	prodl,w,c
  3835  000D68  6ED9               	movwf	fsr2l,c
  3836  000D6A  0E00               	movlw	high _ep_data_out
  3837  000D6C  D006               	goto	L4
  3838  000D6E                     i2l3936:
  3839                           
  3840                           ;usb_device.c: 820: else
  3841                           ;usb_device.c: 821: {
  3842                           ;usb_device.c: 822: ep_data_in[endpoint_number].bits.ping_pong_state ^= 1;
  3843  000D6E  5027               	movf	_endpoint_number,w,c	;volatile
  3844  000D70  0D01               	mullw	1
  3845  000D72  0ED8               	movlw	low _ep_data_in
  3846  000D74  24F3               	addwf	prodl,w,c
  3847  000D76  6ED9               	movwf	fsr2l,c
  3848  000D78  0E00               	movlw	high _ep_data_in
  3849  000D7A                     L4:
  3850  000D7A  20F4               	addwfc	prodh,w,c
  3851  000D7C  6EDA               	movwf	fsr2h,c
  3852  000D7E  0100               	movlb	0	; () banked
  3853  000D80  70DF               	btg	indf2,0,c
  3854                           
  3855                           ; BSR set to: 0
  3856                           ;usb_device.c: 823: }
  3857                           ;usb_device.c: 828: if(endpoint_number == 0)
  3858                           
  3859                           ; BSR set to: 0
  3860  000D82  5027               	movf	_endpoint_number,w,c	;volatile
  3861  000D84  A4D8               	btfss	status,2,c
  3862  000D86  D003               	goto	i2l3942
  3863                           
  3864                           ; BSR set to: 0
  3865                           ;usb_device.c: 829: {
  3866                           ;usb_device.c: 830: USBCtrlEPService();
  3867  000D88  EC0F  F00D         	call	_USBCtrlEPService	;wreg free
  3868                           
  3869                           ;usb_device.c: 831: }
  3870  000D8C  D00E               	goto	i2l3944
  3871  000D8E                     i2l3942:
  3872                           
  3873                           ;usb_device.c: 832: else
  3874                           ;usb_device.c: 833: {
  3875                           ;usb_device.c: 834: USER_USB_CALLBACK_EVENT_HANDLER(EVENT_TRANSFER,(uint8_t*)&USTATcopy.
      +                          Val,0);
  3876  000D8E  0E00               	movlw	0
  3877  000D90  6E38               	movwf	USER_USB_CALLBACK_EVENT_HANDLER@event+1,c
  3878  000D92  0E72               	movlw	114
  3879  000D94  6E37               	movwf	USER_USB_CALLBACK_EVENT_HANDLER@event,c
  3880  000D96  0E2A               	movlw	low _USTATcopy
  3881  000D98  6E39               	movwf	USER_USB_CALLBACK_EVENT_HANDLER@pdata,c
  3882  000D9A  0E00               	movlw	high _USTATcopy
  3883  000D9C  6E3A               	movwf	USER_USB_CALLBACK_EVENT_HANDLER@pdata+1,c
  3884  000D9E  0E00               	movlw	0
  3885  000DA0  6E3C               	movwf	USER_USB_CALLBACK_EVENT_HANDLER@size+1,c
  3886  000DA2  0E00               	movlw	0
  3887  000DA4  6E3B               	movwf	USER_USB_CALLBACK_EVENT_HANDLER@size,c
  3888  000DA6  ECD6  F00D         	call	_USER_USB_CALLBACK_EVENT_HANDLER	;wreg free
  3889  000DAA                     i2l3944:
  3890  000DAA  2A46               	incf	USBDeviceTasks@i,f,c
  3891  000DAC  D7C9               	goto	i2l3922
  3892  000DAE                     i2l189:
  3893                           
  3894                           ;usb_device.c: 840: }
  3895                           ;usb_device.c: 841: }
  3896                           ;usb_device.c: 842: }
  3897                           ;usb_device.c: 844: {PIR2bits.USBIF = 0;};
  3898  000DAE  94A1               	bcf	4001,2,c	;volatile
  3899  000DB0  0012               	return		;funcret
  3900  000DB2                     __end_of_USBDeviceTasks:
  3901                           	opt stack 0
  3902                           pclatu	equ	0xFFB
  3903                           pclath	equ	0xFFA
  3904                           tblptru	equ	0xFF8
  3905                           tblptrh	equ	0xFF7
  3906                           tblptrl	equ	0xFF6
  3907                           tablat	equ	0xFF5
  3908                           prodh	equ	0xFF4
  3909                           prodl	equ	0xFF3
  3910                           intcon	equ	0xFF2
  3911                           postinc0	equ	0xFEE
  3912                           fsr0h	equ	0xFEA
  3913                           fsr0l	equ	0xFE9
  3914                           wreg	equ	0xFE8
  3915                           indf1	equ	0xFE7
  3916                           fsr1h	equ	0xFE2
  3917                           fsr1l	equ	0xFE1
  3918                           indf2	equ	0xFDF
  3919                           postinc2	equ	0xFDE
  3920                           postdec2	equ	0xFDD
  3921                           plusw2	equ	0xFDB
  3922                           fsr2h	equ	0xFDA
  3923                           fsr2l	equ	0xFD9
  3924                           status	equ	0xFD8
  3925                           
  3926 ;; *************** function i2_USBDeviceInit *****************
  3927 ;; Defined at:
  3928 ;;		line 295 in file "CDCLib/usb_device.c"
  3929 ;; Parameters:    Size  Location     Type
  3930 ;;		None
  3931 ;; Auto vars:     Size  Location     Type
  3932 ;;  USBDeviceIni    1    8[COMRAM] unsigned char 
  3933 ;; Return value:  Size  Location     Type
  3934 ;;		None               void
  3935 ;; Registers used:
  3936 ;;		wreg, fsr2l, fsr2h, status,2, status,0, prodl, prodh, cstack
  3937 ;; Tracked objects:
  3938 ;;		On entry : 0/0
  3939 ;;		On exit  : 0/0
  3940 ;;		Unchanged: 0/0
  3941 ;; Data sizes:     COMRAM   BANK0   BANK1   BANK2
  3942 ;;      Params:         0       0       0       0
  3943 ;;      Locals:         1       0       0       0
  3944 ;;      Temps:          0       0       0       0
  3945 ;;      Totals:         1       0       0       0
  3946 ;;Total ram usage:        1 bytes
  3947 ;; Hardware stack levels used:    1
  3948 ;; Hardware stack levels required when called:    1
  3949 ;; This function calls:
  3950 ;;		i2_memset
  3951 ;; This function is called by:
  3952 ;;		_USBDeviceTasks
  3953 ;; This function uses a non-reentrant model
  3954 ;;
  3955                           
  3956                           	psect	text18
  3957  0009EE                     __ptext18:
  3958                           	opt stack 0
  3959  0009EE                     i2_USBDeviceInit:
  3960                           	opt stack 24
  3961                           
  3962                           ;usb_device.c: 297: uint8_t i;
  3963                           ;usb_device.c: 299: {PIE2bits.USBIE = 0;};
  3964                           
  3965                           ;incstack = 0
  3966  0009EE  94A0               	bcf	4000,2,c	;volatile
  3967                           
  3968                           ;usb_device.c: 303: ;
  3969                           ;usb_device.c: 306: {UEIR = 0;};
  3970  0009F0  0E00               	movlw	0
  3971  0009F2  010F               	movlb	15	; () banked
  3972  0009F4  6F5F               	movwf	95,b	;volatile
  3973                           
  3974                           ;usb_device.c: 309: {UIR = 0;};
  3975  0009F6  0E00               	movlw	0
  3976  0009F8  6E62               	movwf	3938,c	;volatile
  3977                           
  3978                           ;usb_device.c: 312: UEP0 = 0;
  3979  0009FA  0E00               	movlw	0
  3980  0009FC  010F               	movlb	15	; () banked
  3981  0009FE  6F53               	movwf	83,b	;volatile
  3982                           
  3983                           ; BSR set to: 15
  3984                           ;usb_device.c: 314: memset((void*)&UEP1,0x00,(2));;
  3985  000A00  0E54               	movlw	84
  3986  000A02  6E2B               	movwf	i2memset@p1,c
  3987  000A04  0E0F               	movlw	15
  3988  000A06  6E2C               	movwf	i2memset@p1+1,c
  3989  000A08  0E00               	movlw	0
  3990  000A0A  6E2E               	movwf	i2memset@c+1,c
  3991  000A0C  0E00               	movlw	0
  3992  000A0E  6E2D               	movwf	i2memset@c,c
  3993  000A10  0E00               	movlw	0
  3994  000A12  6E30               	movwf	i2memset@n+1,c
  3995  000A14  0E02               	movlw	2
  3996  000A16  6E2F               	movwf	i2memset@n,c
  3997  000A18  ECAB  F00F         	call	i2_memset	;wreg free
  3998                           
  3999                           ;usb_device.c: 316: { UCFG = 0x10 | 0x00 | 0x04 | 0x02; UEIE = 0x9F; UIE = 0x39 | 0x40 |
      +                           0x02; };
  4000  000A1C  0E16               	movlw	22
  4001  000A1E  6E61               	movwf	3937,c	;volatile
  4002  000A20  0E9F               	movlw	159
  4003  000A22  010F               	movlb	15	; () banked
  4004  000A24  6F5B               	movwf	91,b	;volatile
  4005                           
  4006                           ; BSR set to: 15
  4007  000A26  0E7B               	movlw	123
  4008  000A28  6E60               	movwf	3936,c	;volatile
  4009                           
  4010                           ; BSR set to: 15
  4011                           ;usb_device.c: 319: ;
  4012                           ;usb_device.c: 322: ;
  4013                           ;usb_device.c: 325: for(i = 0; i < (sizeof(BDT)/sizeof(BDT_ENTRY)); i++)
  4014  000A2A  0E00               	movlw	0
  4015  000A2C  6E33               	movwf	i2USBDeviceInit@i,c
  4016  000A2E                     i2l3788:
  4017                           
  4018                           ; BSR set to: 15
  4019  000A2E  0E0B               	movlw	11
  4020  000A30  6433               	cpfsgt	i2USBDeviceInit@i,c
  4021  000A32  D001               	goto	i2l3792
  4022  000A34  D00E               	goto	i2l167
  4023  000A36                     i2l3792:
  4024                           
  4025                           ;usb_device.c: 326: {
  4026                           ;usb_device.c: 327: BDT[i].Val = 0x00;
  4027  000A36  5033               	movf	i2USBDeviceInit@i,w,c
  4028  000A38  0D04               	mullw	4
  4029  000A3A  0E00               	movlw	0
  4030  000A3C  24F3               	addwf	prodl,w,c
  4031  000A3E  6ED9               	movwf	fsr2l,c
  4032  000A40  0E02               	movlw	2
  4033  000A42  20F4               	addwfc	prodh,w,c
  4034  000A44  6EDA               	movwf	fsr2h,c
  4035  000A46  6ADE               	clrf	postinc2,c
  4036  000A48  6ADE               	clrf	postinc2,c
  4037  000A4A  6ADE               	clrf	postinc2,c
  4038  000A4C  6ADD               	clrf	postdec2,c
  4039  000A4E  2A33               	incf	i2USBDeviceInit@i,f,c
  4040  000A50  D7EE               	goto	i2l3788
  4041  000A52                     i2l167:
  4042                           
  4043                           ;usb_device.c: 328: }
  4044                           ;usb_device.c: 331: UCONbits.PPBRST = 1;
  4045  000A52  8C64               	bsf	3940,6,c	;volatile
  4046                           
  4047                           ;usb_device.c: 334: UADDR = 0x00;
  4048  000A54  0E00               	movlw	0
  4049  000A56  010F               	movlb	15	; () banked
  4050  000A58  6F5C               	movwf	92,b	;volatile
  4051                           
  4052                           ; BSR set to: 15
  4053                           ;usb_device.c: 337: UCONbits.PKTDIS = 0;
  4054  000A5A  9864               	bcf	3940,4,c	;volatile
  4055                           
  4056                           ; BSR set to: 15
  4057                           ;usb_device.c: 340: UCONbits.PPBRST = 0;
  4058  000A5C  9C64               	bcf	3940,6,c	;volatile
  4059  000A5E                     i2l3804:
  4060                           
  4061                           ;usb_device.c: 344: {
  4062                           ;usb_device.c: 345: (UIR &= 0xF7);
  4063  000A5E  9662               	bcf	3938,3,c	;volatile
  4064                           
  4065                           ;usb_device.c: 347: inPipes[0].info.Val = 0;
  4066  000A60  0E00               	movlw	0
  4067  000A62  6E0C               	movwf	_inPipes+3,c	;volatile
  4068                           
  4069                           ;usb_device.c: 348: outPipes[0].info.Val = 0;
  4070  000A64  0E00               	movlw	0
  4071  000A66  6E04               	movwf	_outPipes+3,c	;volatile
  4072                           
  4073                           ;usb_device.c: 349: outPipes[0].wCount.Val = 0;
  4074  000A68  0E00               	movlw	0
  4075  000A6A  6E06               	movwf	_outPipes+5,c	;volatile
  4076  000A6C  0E00               	movlw	0
  4077  000A6E  6E05               	movwf	_outPipes+4,c	;volatile
  4078                           
  4079                           ;usb_device.c: 350: }while(UIRbits.TRNIF == 1);
  4080  000A70  B662               	btfsc	3938,3,c	;volatile
  4081  000A72  D7F5               	goto	i2l3804
  4082                           
  4083                           ;usb_device.c: 354: USBStatusStageEnabledFlag1 = 1;
  4084  000A74  0E01               	movlw	1
  4085  000A76  6E20               	movwf	_USBStatusStageEnabledFlag1,c	;volatile
  4086                           
  4087                           ;usb_device.c: 355: USBStatusStageEnabledFlag2 = 1;
  4088  000A78  0E01               	movlw	1
  4089  000A7A  6E21               	movwf	_USBStatusStageEnabledFlag2,c	;volatile
  4090                           
  4091                           ;usb_device.c: 357: USBDeferINDataStagePackets = 0;
  4092  000A7C  0E00               	movlw	0
  4093  000A7E  0100               	movlb	0	; () banked
  4094  000A80  6FE8               	movwf	_USBDeferINDataStagePackets& (0+255),b	;volatile
  4095                           
  4096                           ;usb_device.c: 358: USBDeferOUTDataStagePackets = 0;
  4097  000A82  0E00               	movlw	0
  4098  000A84  0100               	movlb	0	; () banked
  4099  000A86  6FE9               	movwf	_USBDeferOUTDataStagePackets& (0+255),b	;volatile
  4100                           
  4101                           ;usb_device.c: 359: USBBusIsSuspended = 0;
  4102  000A88  0E00               	movlw	0
  4103  000A8A  6E1D               	movwf	_USBBusIsSuspended,c	;volatile
  4104                           
  4105                           ;usb_device.c: 363: for(i = 0; i < (uint8_t)(2+1u); i++)
  4106  000A8C  0E00               	movlw	0
  4107  000A8E  6E33               	movwf	i2USBDeviceInit@i,c
  4108  000A90                     i2l3816:
  4109                           
  4110                           ; BSR set to: 0
  4111  000A90  0E02               	movlw	2
  4112  000A92  6433               	cpfsgt	i2USBDeviceInit@i,c
  4113  000A94  D001               	goto	i2l3820
  4114  000A96  D02E               	goto	i2l3826
  4115  000A98                     i2l3820:
  4116                           
  4117                           ;usb_device.c: 364: {
  4118                           ;usb_device.c: 365: pBDTEntryIn[i] = 0u;
  4119  000A98  5033               	movf	i2USBDeviceInit@i,w,c
  4120  000A9A  0D02               	mullw	2
  4121  000A9C  0E0F               	movlw	low _pBDTEntryIn
  4122  000A9E  24F3               	addwf	prodl,w,c
  4123  000AA0  6ED9               	movwf	fsr2l,c
  4124  000AA2  0E00               	movlw	high _pBDTEntryIn
  4125  000AA4  20F4               	addwfc	prodh,w,c
  4126  000AA6  6EDA               	movwf	fsr2h,c
  4127  000AA8  0E00               	movlw	0
  4128  000AAA  6EDE               	movwf	postinc2,c
  4129  000AAC  0E00               	movlw	0
  4130  000AAE  6EDD               	movwf	postdec2,c
  4131                           
  4132                           ;usb_device.c: 366: pBDTEntryOut[i] = 0u;
  4133  000AB0  5033               	movf	i2USBDeviceInit@i,w,c
  4134  000AB2  0D02               	mullw	2
  4135  000AB4  0ECA               	movlw	low _pBDTEntryOut
  4136  000AB6  24F3               	addwf	prodl,w,c
  4137  000AB8  6ED9               	movwf	fsr2l,c
  4138  000ABA  0E00               	movlw	high _pBDTEntryOut
  4139  000ABC  20F4               	addwfc	prodh,w,c
  4140  000ABE  6EDA               	movwf	fsr2h,c
  4141  000AC0  0E00               	movlw	0
  4142  000AC2  6EDE               	movwf	postinc2,c
  4143  000AC4  0E00               	movlw	0
  4144  000AC6  6EDD               	movwf	postdec2,c
  4145                           
  4146                           ;usb_device.c: 367: ep_data_in[i].Val = 0u;
  4147  000AC8  5033               	movf	i2USBDeviceInit@i,w,c
  4148  000ACA  0D01               	mullw	1
  4149  000ACC  0ED8               	movlw	low _ep_data_in
  4150  000ACE  24F3               	addwf	prodl,w,c
  4151  000AD0  6ED9               	movwf	fsr2l,c
  4152  000AD2  0E00               	movlw	high _ep_data_in
  4153  000AD4  20F4               	addwfc	prodh,w,c
  4154  000AD6  6EDA               	movwf	fsr2h,c
  4155  000AD8  0E00               	movlw	0
  4156  000ADA  6EDF               	movwf	indf2,c
  4157                           
  4158                           ;usb_device.c: 368: ep_data_out[i].Val = 0u;
  4159  000ADC  5033               	movf	i2USBDeviceInit@i,w,c
  4160  000ADE  0D01               	mullw	1
  4161  000AE0  0EDB               	movlw	low _ep_data_out
  4162  000AE2  24F3               	addwf	prodl,w,c
  4163  000AE4  6ED9               	movwf	fsr2l,c
  4164  000AE6  0E00               	movlw	high _ep_data_out
  4165  000AE8  20F4               	addwfc	prodh,w,c
  4166  000AEA  6EDA               	movwf	fsr2h,c
  4167  000AEC  0E00               	movlw	0
  4168  000AEE  6EDF               	movwf	indf2,c
  4169  000AF0  2A33               	incf	i2USBDeviceInit@i,f,c
  4170  000AF2  D7CE               	goto	i2l3816
  4171  000AF4                     i2l3826:
  4172                           
  4173                           ;usb_device.c: 369: }
  4174                           ;usb_device.c: 372: pBDTEntryIn[0] = (volatile BDT_ENTRY*)&BDT[2];
  4175  000AF4  0E08               	movlw	8
  4176  000AF6  6E0F               	movwf	_pBDTEntryIn,c
  4177  000AF8  0E02               	movlw	2
  4178  000AFA  6E10               	movwf	_pBDTEntryIn+1,c
  4179                           
  4180                           ;usb_device.c: 374: UEP0 = 0x06|0x10;
  4181  000AFC  0E16               	movlw	22
  4182  000AFE  010F               	movlb	15	; () banked
  4183  000B00  6F53               	movwf	83,b	;volatile
  4184                           
  4185                           ; BSR set to: 15
  4186                           ;usb_device.c: 376: BDT[0].ADR = ((uint16_t)(&SetupPkt));
  4187  000B02  0E02               	movlw	2
  4188  000B04  0102               	movlb	2	; () banked
  4189  000B06  6F03               	movwf	3,b	;volatile
  4190  000B08  0E30               	movlw	48
  4191  000B0A  6F02               	movwf	2,b	;volatile
  4192                           
  4193                           ; BSR set to: 2
  4194                           ;usb_device.c: 377: BDT[0].CNT = 8;
  4195  000B0C  0E08               	movlw	8
  4196  000B0E  0102               	movlb	2	; () banked
  4197  000B10  6F01               	movwf	1,b	;volatile
  4198                           
  4199                           ; BSR set to: 2
  4200                           ;usb_device.c: 378: BDT[0].STAT.Val = 0x00|0x04;
  4201  000B12  0E04               	movlw	4
  4202  000B14  0102               	movlb	2	; () banked
  4203  000B16  6F00               	movwf	0,b	;volatile
  4204                           
  4205                           ; BSR set to: 2
  4206                           ;usb_device.c: 379: BDT[0].STAT.Val |= 0x80;
  4207  000B18  0102               	movlb	2	; () banked
  4208  000B1A  8F00               	bsf	0,7,b	;volatile
  4209                           
  4210                           ; BSR set to: 2
  4211                           ;usb_device.c: 382: USBActiveConfiguration = 0;
  4212  000B1C  0E00               	movlw	0
  4213  000B1E  6E29               	movwf	_USBActiveConfiguration,c	;volatile
  4214                           
  4215                           ; BSR set to: 2
  4216                           ;usb_device.c: 384: USB1msTickCount = 0;
  4217  000B20  0E00               	movlw	0
  4218  000B22  0100               	movlb	0	; () banked
  4219  000B24  6FD4               	movwf	_USB1msTickCount& (0+255),b	;volatile
  4220  000B26  0E00               	movlw	0
  4221  000B28  6FD5               	movwf	(_USB1msTickCount+1)& (0+255),b	;volatile
  4222  000B2A  0E00               	movlw	0
  4223  000B2C  6FD6               	movwf	(_USB1msTickCount+2)& (0+255),b	;volatile
  4224  000B2E  0E00               	movlw	0
  4225  000B30  6FD7               	movwf	(_USB1msTickCount+3)& (0+255),b	;volatile
  4226                           
  4227                           ; BSR set to: 0
  4228                           ;usb_device.c: 385: USBTicksSinceSuspendEnd = 0;
  4229  000B32  0E00               	movlw	0
  4230  000B34  0100               	movlb	0	; () banked
  4231  000B36  6FEA               	movwf	_USBTicksSinceSuspendEnd& (0+255),b	;volatile
  4232                           
  4233                           ; BSR set to: 0
  4234                           ;usb_device.c: 388: USBDeviceState = DETACHED_STATE;
  4235  000B38  0E00               	movlw	0
  4236  000B3A  6E1F               	movwf	_USBDeviceState,c	;volatile
  4237                           
  4238                           ; BSR set to: 0
  4239  000B3C  0012               	return		;funcret
  4240  000B3E                     __end_ofi2_USBDeviceInit:
  4241                           	opt stack 0
  4242                           pclatu	equ	0xFFB
  4243                           pclath	equ	0xFFA
  4244                           tblptru	equ	0xFF8
  4245                           tblptrh	equ	0xFF7
  4246                           tblptrl	equ	0xFF6
  4247                           tablat	equ	0xFF5
  4248                           prodh	equ	0xFF4
  4249                           prodl	equ	0xFF3
  4250                           intcon	equ	0xFF2
  4251                           postinc0	equ	0xFEE
  4252                           fsr0h	equ	0xFEA
  4253                           fsr0l	equ	0xFE9
  4254                           wreg	equ	0xFE8
  4255                           indf1	equ	0xFE7
  4256                           fsr1h	equ	0xFE2
  4257                           fsr1l	equ	0xFE1
  4258                           indf2	equ	0xFDF
  4259                           postinc2	equ	0xFDE
  4260                           postdec2	equ	0xFDD
  4261                           plusw2	equ	0xFDB
  4262                           fsr2h	equ	0xFDA
  4263                           fsr2l	equ	0xFD9
  4264                           status	equ	0xFD8
  4265                           
  4266 ;; *************** function _USBWakeFromSuspend *****************
  4267 ;; Defined at:
  4268 ;;		line 2321 in file "CDCLib/usb_device.c"
  4269 ;; Parameters:    Size  Location     Type
  4270 ;;		None
  4271 ;; Auto vars:     Size  Location     Type
  4272 ;;		None
  4273 ;; Return value:  Size  Location     Type
  4274 ;;		None               void
  4275 ;; Registers used:
  4276 ;;		wreg, fsr2l, fsr2h, status,2, status,0, prodl, prodh, cstack
  4277 ;; Tracked objects:
  4278 ;;		On entry : 0/0
  4279 ;;		On exit  : 0/0
  4280 ;;		Unchanged: 0/0
  4281 ;; Data sizes:     COMRAM   BANK0   BANK1   BANK2
  4282 ;;      Params:         0       0       0       0
  4283 ;;      Locals:         0       0       0       0
  4284 ;;      Temps:          0       0       0       0
  4285 ;;      Totals:         0       0       0       0
  4286 ;;Total ram usage:        0 bytes
  4287 ;; Hardware stack levels used:    1
  4288 ;; Hardware stack levels required when called:    5
  4289 ;; This function calls:
  4290 ;;		_USER_USB_CALLBACK_EVENT_HANDLER
  4291 ;; This function is called by:
  4292 ;;		_USBDeviceTasks
  4293 ;; This function uses a non-reentrant model
  4294 ;;
  4295                           
  4296                           	psect	text19
  4297  001E90                     __ptext19:
  4298                           	opt stack 0
  4299  001E90                     _USBWakeFromSuspend:
  4300                           	opt stack 20
  4301                           
  4302                           ;usb_device.c: 2323: USBBusIsSuspended = 0;
  4303                           
  4304                           ; BSR set to: 0
  4305                           ;incstack = 0
  4306  001E90  0E00               	movlw	0
  4307  001E92  6E1D               	movwf	_USBBusIsSuspended,c	;volatile
  4308                           
  4309                           ;usb_device.c: 2329: USER_USB_CALLBACK_EVENT_HANDLER(EVENT_RESUME,0,0);
  4310  001E94  0E00               	movlw	0
  4311  001E96  6E38               	movwf	USER_USB_CALLBACK_EVENT_HANDLER@event+1,c
  4312  001E98  0E74               	movlw	116
  4313  001E9A  6E37               	movwf	USER_USB_CALLBACK_EVENT_HANDLER@event,c
  4314  001E9C  0E00               	movlw	0
  4315  001E9E  6E39               	movwf	USER_USB_CALLBACK_EVENT_HANDLER@pdata,c
  4316  001EA0  0E00               	movlw	0
  4317  001EA2  6E3A               	movwf	USER_USB_CALLBACK_EVENT_HANDLER@pdata+1,c
  4318  001EA4  0E00               	movlw	0
  4319  001EA6  6E3C               	movwf	USER_USB_CALLBACK_EVENT_HANDLER@size+1,c
  4320  001EA8  0E00               	movlw	0
  4321  001EAA  6E3B               	movwf	USER_USB_CALLBACK_EVENT_HANDLER@size,c
  4322  001EAC  ECD6  F00D         	call	_USER_USB_CALLBACK_EVENT_HANDLER	;wreg free
  4323                           
  4324                           ;usb_device.c: 2336: UCONbits.SUSPND = 0;
  4325  001EB0  9264               	bcf	3940,1,c	;volatile
  4326                           
  4327                           ;usb_device.c: 2341: UIEbits.ACTVIE = 0;
  4328  001EB2  9460               	bcf	3936,2,c	;volatile
  4329                           
  4330                           ;usb_device.c: 2359: while(UIRbits.ACTVIF)
  4331  001EB4  D001               	goto	i2l3544
  4332  001EB6                     i2l3542:
  4333                           
  4334                           ;usb_device.c: 2361: {
  4335                           ;usb_device.c: 2362: (UIR &= 0xFB);
  4336  001EB6  9462               	bcf	3938,2,c	;volatile
  4337  001EB8                     i2l3544:
  4338  001EB8  B462               	btfsc	3938,2,c	;volatile
  4339  001EBA  D7FD               	goto	i2l3542
  4340                           
  4341                           ;usb_device.c: 2363: }
  4342                           ;usb_device.c: 2365: USBTicksSinceSuspendEnd = 0;
  4343  001EBC  0E00               	movlw	0
  4344  001EBE  0100               	movlb	0	; () banked
  4345  001EC0  6FEA               	movwf	_USBTicksSinceSuspendEnd& (0+255),b	;volatile
  4346                           
  4347                           ; BSR set to: 0
  4348  001EC2  0012               	return		;funcret
  4349  001EC4                     __end_of_USBWakeFromSuspend:
  4350                           	opt stack 0
  4351                           pclatu	equ	0xFFB
  4352                           pclath	equ	0xFFA
  4353                           tblptru	equ	0xFF8
  4354                           tblptrh	equ	0xFF7
  4355                           tblptrl	equ	0xFF6
  4356                           tablat	equ	0xFF5
  4357                           prodh	equ	0xFF4
  4358                           prodl	equ	0xFF3
  4359                           intcon	equ	0xFF2
  4360                           postinc0	equ	0xFEE
  4361                           fsr0h	equ	0xFEA
  4362                           fsr0l	equ	0xFE9
  4363                           wreg	equ	0xFE8
  4364                           indf1	equ	0xFE7
  4365                           fsr1h	equ	0xFE2
  4366                           fsr1l	equ	0xFE1
  4367                           indf2	equ	0xFDF
  4368                           postinc2	equ	0xFDE
  4369                           postdec2	equ	0xFDD
  4370                           plusw2	equ	0xFDB
  4371                           fsr2h	equ	0xFDA
  4372                           fsr2l	equ	0xFD9
  4373                           status	equ	0xFD8
  4374                           
  4375 ;; *************** function _USBSuspend *****************
  4376 ;; Defined at:
  4377 ;;		line 2263 in file "CDCLib/usb_device.c"
  4378 ;; Parameters:    Size  Location     Type
  4379 ;;		None
  4380 ;; Auto vars:     Size  Location     Type
  4381 ;;		None
  4382 ;; Return value:  Size  Location     Type
  4383 ;;		None               void
  4384 ;; Registers used:
  4385 ;;		wreg, fsr2l, fsr2h, status,2, status,0, prodl, prodh, cstack
  4386 ;; Tracked objects:
  4387 ;;		On entry : 0/0
  4388 ;;		On exit  : 0/0
  4389 ;;		Unchanged: 0/0
  4390 ;; Data sizes:     COMRAM   BANK0   BANK1   BANK2
  4391 ;;      Params:         0       0       0       0
  4392 ;;      Locals:         0       0       0       0
  4393 ;;      Temps:          0       0       0       0
  4394 ;;      Totals:         0       0       0       0
  4395 ;;Total ram usage:        0 bytes
  4396 ;; Hardware stack levels used:    1
  4397 ;; Hardware stack levels required when called:    5
  4398 ;; This function calls:
  4399 ;;		_USER_USB_CALLBACK_EVENT_HANDLER
  4400 ;; This function is called by:
  4401 ;;		_USBDeviceTasks
  4402 ;; This function uses a non-reentrant model
  4403 ;;
  4404                           
  4405                           	psect	text20
  4406  001F28                     __ptext20:
  4407                           	opt stack 0
  4408  001F28                     _USBSuspend:
  4409                           	opt stack 20
  4410                           
  4411                           ;usb_device.c: 2288: UIEbits.ACTVIE = 1;
  4412                           
  4413                           ; BSR set to: 0
  4414                           ;incstack = 0
  4415  001F28  8460               	bsf	3936,2,c	;volatile
  4416                           
  4417                           ;usb_device.c: 2289: (UIR &= 0xEF);
  4418  001F2A  9862               	bcf	3938,4,c	;volatile
  4419                           
  4420                           ;usb_device.c: 2292: UCONbits.SUSPND = 1;
  4421  001F2C  8264               	bsf	3940,1,c	;volatile
  4422                           
  4423                           ;usb_device.c: 2295: USBBusIsSuspended = 1;
  4424  001F2E  0E01               	movlw	1
  4425  001F30  6E1D               	movwf	_USBBusIsSuspended,c	;volatile
  4426                           
  4427                           ;usb_device.c: 2296: USBTicksSinceSuspendEnd = 0;
  4428  001F32  0E00               	movlw	0
  4429  001F34  0100               	movlb	0	; () banked
  4430  001F36  6FEA               	movwf	_USBTicksSinceSuspendEnd& (0+255),b	;volatile
  4431                           
  4432                           ; BSR set to: 0
  4433                           ;usb_device.c: 2303: USER_USB_CALLBACK_EVENT_HANDLER(EVENT_SUSPEND,0,0);
  4434  001F38  0E00               	movlw	0
  4435  001F3A  6E38               	movwf	USER_USB_CALLBACK_EVENT_HANDLER@event+1,c
  4436  001F3C  0E75               	movlw	117
  4437  001F3E  6E37               	movwf	USER_USB_CALLBACK_EVENT_HANDLER@event,c
  4438  001F40  0E00               	movlw	0
  4439  001F42  6E39               	movwf	USER_USB_CALLBACK_EVENT_HANDLER@pdata,c
  4440  001F44  0E00               	movlw	0
  4441  001F46  6E3A               	movwf	USER_USB_CALLBACK_EVENT_HANDLER@pdata+1,c
  4442  001F48  0E00               	movlw	0
  4443  001F4A  6E3C               	movwf	USER_USB_CALLBACK_EVENT_HANDLER@size+1,c
  4444  001F4C  0E00               	movlw	0
  4445  001F4E  6E3B               	movwf	USER_USB_CALLBACK_EVENT_HANDLER@size,c
  4446  001F50  ECD6  F00D         	call	_USER_USB_CALLBACK_EVENT_HANDLER	;wreg free
  4447  001F54  0012               	return		;funcret
  4448  001F56                     __end_of_USBSuspend:
  4449                           	opt stack 0
  4450                           pclatu	equ	0xFFB
  4451                           pclath	equ	0xFFA
  4452                           tblptru	equ	0xFF8
  4453                           tblptrh	equ	0xFF7
  4454                           tblptrl	equ	0xFF6
  4455                           tablat	equ	0xFF5
  4456                           prodh	equ	0xFF4
  4457                           prodl	equ	0xFF3
  4458                           intcon	equ	0xFF2
  4459                           postinc0	equ	0xFEE
  4460                           fsr0h	equ	0xFEA
  4461                           fsr0l	equ	0xFE9
  4462                           wreg	equ	0xFE8
  4463                           indf1	equ	0xFE7
  4464                           fsr1h	equ	0xFE2
  4465                           fsr1l	equ	0xFE1
  4466                           indf2	equ	0xFDF
  4467                           postinc2	equ	0xFDE
  4468                           postdec2	equ	0xFDD
  4469                           plusw2	equ	0xFDB
  4470                           fsr2h	equ	0xFDA
  4471                           fsr2l	equ	0xFD9
  4472                           status	equ	0xFD8
  4473                           
  4474 ;; *************** function _USBStallHandler *****************
  4475 ;; Defined at:
  4476 ;;		line 2220 in file "CDCLib/usb_device.c"
  4477 ;; Parameters:    Size  Location     Type
  4478 ;;		None
  4479 ;; Auto vars:     Size  Location     Type
  4480 ;;		None
  4481 ;; Return value:  Size  Location     Type
  4482 ;;		None               void
  4483 ;; Registers used:
  4484 ;;		wreg, fsr2l, fsr2h, status,2, status,0
  4485 ;; Tracked objects:
  4486 ;;		On entry : 0/0
  4487 ;;		On exit  : 0/0
  4488 ;;		Unchanged: 0/0
  4489 ;; Data sizes:     COMRAM   BANK0   BANK1   BANK2
  4490 ;;      Params:         0       0       0       0
  4491 ;;      Locals:         0       0       0       0
  4492 ;;      Temps:          1       0       0       0
  4493 ;;      Totals:         1       0       0       0
  4494 ;;Total ram usage:        1 bytes
  4495 ;; Hardware stack levels used:    1
  4496 ;; This function calls:
  4497 ;;		Nothing
  4498 ;; This function is called by:
  4499 ;;		_USBDeviceTasks
  4500 ;; This function uses a non-reentrant model
  4501 ;;
  4502                           
  4503                           	psect	text21
  4504  001D9A                     __ptext21:
  4505                           	opt stack 0
  4506  001D9A                     _USBStallHandler:
  4507                           	opt stack 25
  4508                           
  4509                           ;usb_device.c: 2232: if(UEP0bits.EPSTALL == 1)
  4510                           
  4511                           ;incstack = 0
  4512  001D9A  010F               	movlb	15	; () banked
  4513  001D9C  A153               	btfss	83,0,b	;volatile
  4514  001D9E  D01E               	goto	i2l328
  4515                           
  4516                           ; BSR set to: 15
  4517                           ;usb_device.c: 2233: {
  4518                           ;usb_device.c: 2235: if((pBDTEntryEP0OutCurrent->STAT.Val == 0x80) && (pBDTEntryIn[0]->S
      +                          TAT.Val == (0x80|0x04)))
  4519  001DA0  C017  FFD9         	movff	_pBDTEntryEP0OutCurrent,fsr2l
  4520  001DA4  C018  FFDA         	movff	_pBDTEntryEP0OutCurrent+1,fsr2h
  4521  001DA8  0E80               	movlw	128
  4522  001DAA  18DE               	xorwf	postinc2,w,c
  4523  001DAC  A4D8               	btfss	status,2,c
  4524  001DAE  D014               	goto	i2l3580
  4525                           
  4526                           ; BSR set to: 15
  4527  001DB0  C00F  FFD9         	movff	_pBDTEntryIn,fsr2l
  4528  001DB4  C010  FFDA         	movff	_pBDTEntryIn+1,fsr2h
  4529  001DB8  0E84               	movlw	132
  4530  001DBA  18DE               	xorwf	postinc2,w,c
  4531  001DBC  A4D8               	btfss	status,2,c
  4532  001DBE  D00C               	goto	i2l3580
  4533                           
  4534                           ; BSR set to: 15
  4535                           ;usb_device.c: 2236: {
  4536                           ;usb_device.c: 2238: pBDTEntryEP0OutCurrent->STAT.Val = 0x00|(0x08 & 0x08)|0x04;
  4537  001DC0  C017  FFD9         	movff	_pBDTEntryEP0OutCurrent,fsr2l
  4538  001DC4  C018  FFDA         	movff	_pBDTEntryEP0OutCurrent+1,fsr2h
  4539  001DC8  0E0C               	movlw	12
  4540  001DCA  6EDF               	movwf	indf2,c
  4541                           
  4542                           ; BSR set to: 15
  4543                           ;usb_device.c: 2239: pBDTEntryEP0OutCurrent->STAT.Val |= 0x80;
  4544  001DCC  C017  FFD9         	movff	_pBDTEntryEP0OutCurrent,fsr2l
  4545  001DD0  C018  FFDA         	movff	_pBDTEntryEP0OutCurrent+1,fsr2h
  4546  001DD4  0E00               	movlw	0
  4547  001DD6  8EDB               	bsf	plusw2,7,c
  4548  001DD8                     i2l3580:
  4549                           
  4550                           ; BSR set to: 15
  4551                           ;usb_device.c: 2240: }
  4552                           ;usb_device.c: 2241: UEP0bits.EPSTALL = 0;
  4553  001DD8  010F               	movlb	15	; () banked
  4554  001DDA  9153               	bcf	83,0,b	;volatile
  4555  001DDC                     i2l328:
  4556                           
  4557                           ; BSR set to: 15
  4558                           ;usb_device.c: 2242: }
  4559                           ;usb_device.c: 2244: (UIR &= 0xDF);
  4560  001DDC  9A62               	bcf	3938,5,c	;volatile
  4561                           
  4562                           ; BSR set to: 15
  4563  001DDE  0012               	return		;funcret
  4564  001DE0                     __end_of_USBStallHandler:
  4565                           	opt stack 0
  4566                           pclatu	equ	0xFFB
  4567                           pclath	equ	0xFFA
  4568                           tblptru	equ	0xFF8
  4569                           tblptrh	equ	0xFF7
  4570                           tblptrl	equ	0xFF6
  4571                           tablat	equ	0xFF5
  4572                           prodh	equ	0xFF4
  4573                           prodl	equ	0xFF3
  4574                           intcon	equ	0xFF2
  4575                           postinc0	equ	0xFEE
  4576                           fsr0h	equ	0xFEA
  4577                           fsr0l	equ	0xFE9
  4578                           wreg	equ	0xFE8
  4579                           indf1	equ	0xFE7
  4580                           fsr1h	equ	0xFE2
  4581                           fsr1l	equ	0xFE1
  4582                           indf2	equ	0xFDF
  4583                           postinc2	equ	0xFDE
  4584                           postdec2	equ	0xFDD
  4585                           plusw2	equ	0xFDB
  4586                           fsr2h	equ	0xFDA
  4587                           fsr2l	equ	0xFD9
  4588                           status	equ	0xFD8
  4589                           
  4590 ;; *************** function _USBIncrement1msInternalTimers *****************
  4591 ;; Defined at:
  4592 ;;		line 3042 in file "CDCLib/usb_device.c"
  4593 ;; Parameters:    Size  Location     Type
  4594 ;;		None
  4595 ;; Auto vars:     Size  Location     Type
  4596 ;;		None
  4597 ;; Return value:  Size  Location     Type
  4598 ;;		None               void
  4599 ;; Registers used:
  4600 ;;		wreg, status,2, status,0
  4601 ;; Tracked objects:
  4602 ;;		On entry : 0/0
  4603 ;;		On exit  : 0/0
  4604 ;;		Unchanged: 0/0
  4605 ;; Data sizes:     COMRAM   BANK0   BANK1   BANK2
  4606 ;;      Params:         0       0       0       0
  4607 ;;      Locals:         0       0       0       0
  4608 ;;      Temps:          0       0       0       0
  4609 ;;      Totals:         0       0       0       0
  4610 ;;Total ram usage:        0 bytes
  4611 ;; Hardware stack levels used:    1
  4612 ;; This function calls:
  4613 ;;		Nothing
  4614 ;; This function is called by:
  4615 ;;		_USBDeviceTasks
  4616 ;; This function uses a non-reentrant model
  4617 ;;
  4618                           
  4619                           	psect	text22
  4620  001FD2                     __ptext22:
  4621                           	opt stack 0
  4622  001FD2                     _USBIncrement1msInternalTimers:
  4623                           	opt stack 25
  4624                           
  4625                           ;usb_device.c: 3050: USB1msTickCount++;
  4626                           
  4627                           ; BSR set to: 15
  4628                           ;incstack = 0
  4629  001FD2  0E01               	movlw	1
  4630  001FD4  0100               	movlb	0	; () banked
  4631  001FD6  27D4               	addwf	_USB1msTickCount& (0+255),f,b	;volatile
  4632  001FD8  0E00               	movlw	0
  4633  001FDA  23D5               	addwfc	(_USB1msTickCount+1)& (0+255),f,b	;volatile
  4634  001FDC  23D6               	addwfc	(_USB1msTickCount+2)& (0+255),f,b	;volatile
  4635  001FDE  23D7               	addwfc	(_USB1msTickCount+3)& (0+255),f,b	;volatile
  4636                           
  4637                           ; BSR set to: 0
  4638                           ;usb_device.c: 3051: if(USBBusIsSuspended == 0)
  4639  001FE0  501D               	movf	_USBBusIsSuspended,w,c	;volatile
  4640  001FE2  A4D8               	btfss	status,2,c
  4641  001FE4  0012               	return	
  4642                           
  4643                           ; BSR set to: 0
  4644                           ;usb_device.c: 3052: {
  4645                           ;usb_device.c: 3053: USBTicksSinceSuspendEnd++;
  4646  001FE6  0100               	movlb	0	; () banked
  4647  001FE8  2BEA               	incf	_USBTicksSinceSuspendEnd& (0+255),f,b	;volatile
  4648                           
  4649                           ; BSR set to: 0
  4650                           ;usb_device.c: 3055: if(USBTicksSinceSuspendEnd == 0)
  4651  001FEA  0100               	movlb	0	; () banked
  4652  001FEC  51EA               	movf	_USBTicksSinceSuspendEnd& (0+255),w,b	;volatile
  4653  001FEE  A4D8               	btfss	status,2,c
  4654  001FF0  0012               	return	
  4655                           
  4656                           ; BSR set to: 0
  4657                           ;usb_device.c: 3056: {
  4658                           ;usb_device.c: 3057: USBTicksSinceSuspendEnd = 255;
  4659  001FF2  0100               	movlb	0	; () banked
  4660  001FF4  69EA               	setf	_USBTicksSinceSuspendEnd& (0+255),b	;volatile
  4661                           
  4662                           ; BSR set to: 0
  4663  001FF6  0012               	return	
  4664  001FF8                     __end_of_USBIncrement1msInternalTimers:
  4665                           	opt stack 0
  4666                           pclatu	equ	0xFFB
  4667                           pclath	equ	0xFFA
  4668                           tblptru	equ	0xFF8
  4669                           tblptrh	equ	0xFF7
  4670                           tblptrl	equ	0xFF6
  4671                           tablat	equ	0xFF5
  4672                           prodh	equ	0xFF4
  4673                           prodl	equ	0xFF3
  4674                           intcon	equ	0xFF2
  4675                           postinc0	equ	0xFEE
  4676                           fsr0h	equ	0xFEA
  4677                           fsr0l	equ	0xFE9
  4678                           wreg	equ	0xFE8
  4679                           indf1	equ	0xFE7
  4680                           fsr1h	equ	0xFE2
  4681                           fsr1l	equ	0xFE1
  4682                           indf2	equ	0xFDF
  4683                           postinc2	equ	0xFDE
  4684                           postdec2	equ	0xFDD
  4685                           plusw2	equ	0xFDB
  4686                           fsr2h	equ	0xFDA
  4687                           fsr2l	equ	0xFD9
  4688                           status	equ	0xFD8
  4689                           
  4690 ;; *************** function _USBCtrlEPService *****************
  4691 ;; Defined at:
  4692 ;;		line 2390 in file "CDCLib/usb_device.c"
  4693 ;; Parameters:    Size  Location     Type
  4694 ;;		None
  4695 ;; Auto vars:     Size  Location     Type
  4696 ;;		None
  4697 ;; Return value:  Size  Location     Type
  4698 ;;		None               void
  4699 ;; Registers used:
  4700 ;;		wreg, fsr1l, fsr1h, fsr2l, fsr2h, status,2, status,0, tblptrl, tblptrh, tblptru, prodl, prodh, cstack
  4701 ;; Tracked objects:
  4702 ;;		On entry : 0/0
  4703 ;;		On exit  : 0/0
  4704 ;;		Unchanged: 0/0
  4705 ;; Data sizes:     COMRAM   BANK0   BANK1   BANK2
  4706 ;;      Params:         0       0       0       0
  4707 ;;      Locals:         0       0       0       0
  4708 ;;      Temps:          1       0       0       0
  4709 ;;      Totals:         1       0       0       0
  4710 ;;Total ram usage:        1 bytes
  4711 ;; Hardware stack levels used:    1
  4712 ;; Hardware stack levels required when called:    8
  4713 ;; This function calls:
  4714 ;;		_USBCtrlTrfInHandler
  4715 ;;		_USBCtrlTrfOutHandler
  4716 ;;		_USBCtrlTrfSetupHandler
  4717 ;;		_memcpy
  4718 ;; This function is called by:
  4719 ;;		_USBDeviceTasks
  4720 ;; This function uses a non-reentrant model
  4721 ;;
  4722                           
  4723                           	psect	text23
  4724  001A1E                     __ptext23:
  4725                           	opt stack 0
  4726  001A1E                     _USBCtrlEPService:
  4727                           	opt stack 17
  4728                           
  4729                           ;usb_device.c: 2396: USBStatusStageTimeoutCounter = (uint8_t)45;
  4730                           
  4731                           ; BSR set to: 0
  4732                           ;incstack = 0
  4733  001A1E  0E2D               	movlw	45
  4734  001A20  6E22               	movwf	_USBStatusStageTimeoutCounter,c	;volatile
  4735                           
  4736                           ;usb_device.c: 2400: if((USTATcopy.Val & ~0x02) == 0x00)
  4737  001A22  C02A  F045         	movff	_USTATcopy,??_USBCtrlEPService	;volatile
  4738  001A26  0EFD               	movlw	253
  4739  001A28  1645               	andwf	??_USBCtrlEPService,f,c
  4740  001A2A  A4D8               	btfss	status,2,c
  4741  001A2C  D038               	goto	i2l3600
  4742                           
  4743                           ;usb_device.c: 2401: {
  4744                           ;usb_device.c: 2404: pBDTEntryEP0OutCurrent = (volatile BDT_ENTRY*)&BDT[(USTATcopy.Val &
      +                           0x7E)>>1];
  4745  001A2E  C02A  F045         	movff	_USTATcopy,??_USBCtrlEPService	;volatile
  4746  001A32  90D8               	bcf	status,0,c
  4747  001A34  3245               	rrcf	??_USBCtrlEPService,f,c
  4748  001A36  0E3F               	movlw	63
  4749  001A38  1645               	andwf	??_USBCtrlEPService,f,c
  4750  001A3A  5045               	movf	??_USBCtrlEPService,w,c
  4751  001A3C  0D04               	mullw	4
  4752  001A3E  0E00               	movlw	0
  4753  001A40  24F3               	addwf	prodl,w,c
  4754  001A42  6E17               	movwf	_pBDTEntryEP0OutCurrent,c
  4755  001A44  0E02               	movlw	2
  4756  001A46  20F4               	addwfc	prodh,w,c
  4757  001A48  6E18               	movwf	_pBDTEntryEP0OutCurrent+1,c
  4758                           
  4759                           ;usb_device.c: 2412: pBDTEntryEP0OutNext = pBDTEntryEP0OutCurrent;
  4760  001A4A  C017  F019         	movff	_pBDTEntryEP0OutCurrent,_pBDTEntryEP0OutNext
  4761  001A4E  C018  F01A         	movff	_pBDTEntryEP0OutCurrent+1,_pBDTEntryEP0OutNext+1
  4762                           
  4763                           ;usb_device.c: 2414: ((uint8_t_VAL*)&pBDTEntryEP0OutNext)->Val ^= 0x0004;
  4764  001A52  0E04               	movlw	4
  4765  001A54  1A19               	xorwf	_pBDTEntryEP0OutNext,f,c
  4766                           
  4767                           ;usb_device.c: 2417: if(pBDTEntryEP0OutCurrent->STAT.PID == 0xD)
  4768  001A56  C017  FFD9         	movff	_pBDTEntryEP0OutCurrent,fsr2l
  4769  001A5A  C018  FFDA         	movff	_pBDTEntryEP0OutCurrent+1,fsr2h
  4770  001A5E  30DF               	rrcf	indf2,w,c
  4771  001A60  32E8               	rrcf	wreg,f,c
  4772  001A62  0B0F               	andlw	15
  4773  001A64  0A0D               	xorlw	13
  4774  001A66  A4D8               	btfss	status,2,c
  4775  001A68  D017               	goto	i2l3598
  4776                           
  4777                           ;usb_device.c: 2418: {
  4778                           ;usb_device.c: 2423: memcpy((uint8_t*)&SetupPkt, (uint8_t*)((void *)(pBDTEntryEP0OutCurr
      +                          ent->ADR)), 8);
  4779  001A6A  0E30               	movlw	48
  4780  001A6C  6E2B               	movwf	memcpy@d1,c
  4781  001A6E  0E02               	movlw	2
  4782  001A70  6E2C               	movwf	memcpy@d1+1,c
  4783  001A72  EE20 F002          	lfsr	2,2
  4784  001A76  5017               	movf	_pBDTEntryEP0OutCurrent,w,c
  4785  001A78  26D9               	addwf	fsr2l,f,c
  4786  001A7A  5018               	movf	_pBDTEntryEP0OutCurrent+1,w,c
  4787  001A7C  22DA               	addwfc	fsr2h,f,c
  4788  001A7E  CFDE F02D          	movff	postinc2,memcpy@s1
  4789  001A82  CFDD F02E          	movff	postdec2,memcpy@s1+1
  4790  001A86  0E00               	movlw	0
  4791  001A88  6E30               	movwf	memcpy@n+1,c
  4792  001A8A  0E08               	movlw	8
  4793  001A8C  6E2F               	movwf	memcpy@n,c
  4794  001A8E  ECF0  F00E         	call	_memcpy	;wreg free
  4795                           
  4796                           ;usb_device.c: 2426: USBCtrlTrfSetupHandler();
  4797  001A92  EC57  F00D         	call	_USBCtrlTrfSetupHandler	;wreg free
  4798                           
  4799                           ;usb_device.c: 2427: }
  4800  001A96  0012               	return	
  4801  001A98                     i2l3598:
  4802                           
  4803                           ;usb_device.c: 2428: else
  4804                           ;usb_device.c: 2429: {
  4805                           ;usb_device.c: 2431: USBCtrlTrfOutHandler();
  4806  001A98  EC75  F00E         	call	_USBCtrlTrfOutHandler	;wreg free
  4807                           
  4808                           ;usb_device.c: 2432: }
  4809                           ;usb_device.c: 2433: }
  4810  001A9C  0012               	return	
  4811  001A9E                     i2l3600:
  4812                           
  4813                           ;usb_device.c: 2434: else if((USTATcopy.Val & ~0x02) == 0x04)
  4814  001A9E  502A               	movf	_USTATcopy,w,c	;volatile
  4815  001AA0  0BFD               	andlw	253
  4816  001AA2  0A04               	xorlw	4
  4817  001AA4  A4D8               	btfss	status,2,c
  4818  001AA6  0012               	return	
  4819                           
  4820                           ;usb_device.c: 2435: {
  4821                           ;usb_device.c: 2438: USBCtrlTrfInHandler();
  4822  001AA8  ECD5  F00A         	call	_USBCtrlTrfInHandler	;wreg free
  4823  001AAC  0012               	return	
  4824  001AAE                     __end_of_USBCtrlEPService:
  4825                           	opt stack 0
  4826                           pclatu	equ	0xFFB
  4827                           pclath	equ	0xFFA
  4828                           tblptru	equ	0xFF8
  4829                           tblptrh	equ	0xFF7
  4830                           tblptrl	equ	0xFF6
  4831                           tablat	equ	0xFF5
  4832                           prodh	equ	0xFF4
  4833                           prodl	equ	0xFF3
  4834                           intcon	equ	0xFF2
  4835                           postinc0	equ	0xFEE
  4836                           fsr0h	equ	0xFEA
  4837                           fsr0l	equ	0xFE9
  4838                           wreg	equ	0xFE8
  4839                           indf1	equ	0xFE7
  4840                           fsr1h	equ	0xFE2
  4841                           fsr1l	equ	0xFE1
  4842                           indf2	equ	0xFDF
  4843                           postinc2	equ	0xFDE
  4844                           postdec2	equ	0xFDD
  4845                           plusw2	equ	0xFDB
  4846                           fsr2h	equ	0xFDA
  4847                           fsr2l	equ	0xFD9
  4848                           status	equ	0xFD8
  4849                           
  4850 ;; *************** function _memcpy *****************
  4851 ;; Defined at:
  4852 ;;		line 11 in file "C:\Program Files (x86)\Microchip\xc8\v1.35\sources\common\memcpy.c"
  4853 ;; Parameters:    Size  Location     Type
  4854 ;;  d1              2    0[COMRAM] PTR void 
  4855 ;;		 -> SetupPkt(8), 
  4856 ;;  s1              2    2[COMRAM] PTR const void 
  4857 ;;		 -> cdc_data_tx(64), cdc_data_rx(64), RAM(767), CtrlTrfData(8), 
  4858 ;;		 -> SetupPkt(8), NULL(0), 
  4859 ;;  n               2    4[COMRAM] unsigned int 
  4860 ;; Auto vars:     Size  Location     Type
  4861 ;;  s               2    8[COMRAM] PTR const unsigned char 
  4862 ;;		 -> cdc_data_tx(64), cdc_data_rx(64), RAM(767), CtrlTrfData(8), 
  4863 ;;		 -> SetupPkt(8), NULL(0), 
  4864 ;;  d               2    6[COMRAM] PTR unsigned char 
  4865 ;;		 -> SetupPkt(8), 
  4866 ;; Return value:  Size  Location     Type
  4867 ;;                  2    0[COMRAM] PTR void 
  4868 ;; Registers used:
  4869 ;;		wreg, fsr1l, fsr1h, fsr2l, fsr2h, status,2, status,0
  4870 ;; Tracked objects:
  4871 ;;		On entry : 0/0
  4872 ;;		On exit  : 0/0
  4873 ;;		Unchanged: 0/0
  4874 ;; Data sizes:     COMRAM   BANK0   BANK1   BANK2
  4875 ;;      Params:         6       0       0       0
  4876 ;;      Locals:         4       0       0       0
  4877 ;;      Temps:          0       0       0       0
  4878 ;;      Totals:        10       0       0       0
  4879 ;;Total ram usage:       10 bytes
  4880 ;; Hardware stack levels used:    1
  4881 ;; This function calls:
  4882 ;;		Nothing
  4883 ;; This function is called by:
  4884 ;;		_USBCtrlEPService
  4885 ;; This function uses a non-reentrant model
  4886 ;;
  4887                           
  4888                           	psect	text24
  4889  001DE0                     __ptext24:
  4890                           	opt stack 0
  4891  001DE0                     _memcpy:
  4892                           	opt stack 24
  4893                           
  4894                           ;incstack = 0
  4895  001DE0  C02D  F033         	movff	memcpy@s1,memcpy@s
  4896  001DE4  C02E  F034         	movff	memcpy@s1+1,memcpy@s+1
  4897  001DE8  C02B  F031         	movff	memcpy@d1,memcpy@d
  4898  001DEC  C02C  F032         	movff	memcpy@d1+1,memcpy@d+1
  4899  001DF0  D00E               	goto	i2l3374
  4900  001DF2                     i2l3368:
  4901  001DF2  C033  FFD9         	movff	memcpy@s,fsr2l
  4902  001DF6  C034  FFDA         	movff	memcpy@s+1,fsr2h
  4903  001DFA  C031  FFE1         	movff	memcpy@d,fsr1l
  4904  001DFE  C032  FFE2         	movff	memcpy@d+1,fsr1h
  4905  001E02  CFDF FFE7          	movff	indf2,indf1
  4906  001E06  4A33               	infsnz	memcpy@s,f,c
  4907  001E08  2A34               	incf	memcpy@s+1,f,c
  4908  001E0A  4A31               	infsnz	memcpy@d,f,c
  4909  001E0C  2A32               	incf	memcpy@d+1,f,c
  4910  001E0E                     i2l3374:
  4911  001E0E  062F               	decf	memcpy@n,f,c
  4912  001E10  A0D8               	btfss	status,0,c
  4913  001E12  0630               	decf	memcpy@n+1,f,c
  4914  001E14  282F               	incf	memcpy@n,w,c
  4915  001E16  E1ED               	bnz	i2l3368
  4916  001E18  2830               	incf	memcpy@n+1,w,c
  4917  001E1A  B4D8               	btfsc	status,2,c
  4918  001E1C  0012               	return	
  4919  001E1E  D7E9               	goto	i2l3368
  4920  001E20                     __end_of_memcpy:
  4921                           	opt stack 0
  4922                           pclatu	equ	0xFFB
  4923                           pclath	equ	0xFFA
  4924                           tblptru	equ	0xFF8
  4925                           tblptrh	equ	0xFF7
  4926                           tblptrl	equ	0xFF6
  4927                           tablat	equ	0xFF5
  4928                           prodh	equ	0xFF4
  4929                           prodl	equ	0xFF3
  4930                           intcon	equ	0xFF2
  4931                           postinc0	equ	0xFEE
  4932                           fsr0h	equ	0xFEA
  4933                           fsr0l	equ	0xFE9
  4934                           wreg	equ	0xFE8
  4935                           indf1	equ	0xFE7
  4936                           fsr1h	equ	0xFE2
  4937                           fsr1l	equ	0xFE1
  4938                           indf2	equ	0xFDF
  4939                           postinc2	equ	0xFDE
  4940                           postdec2	equ	0xFDD
  4941                           plusw2	equ	0xFDB
  4942                           fsr2h	equ	0xFDA
  4943                           fsr2l	equ	0xFD9
  4944                           status	equ	0xFD8
  4945                           
  4946 ;; *************** function _USBCtrlTrfSetupHandler *****************
  4947 ;; Defined at:
  4948 ;;		line 2483 in file "CDCLib/usb_device.c"
  4949 ;; Parameters:    Size  Location     Type
  4950 ;;		None
  4951 ;; Auto vars:     Size  Location     Type
  4952 ;;		None
  4953 ;; Return value:  Size  Location     Type
  4954 ;;		None               void
  4955 ;; Registers used:
  4956 ;;		wreg, fsr1l, fsr1h, fsr2l, fsr2h, status,2, status,0, tblptrl, tblptrh, tblptru, prodl, prodh, cstack
  4957 ;; Tracked objects:
  4958 ;;		On entry : 0/0
  4959 ;;		On exit  : 0/0
  4960 ;;		Unchanged: 0/0
  4961 ;; Data sizes:     COMRAM   BANK0   BANK1   BANK2
  4962 ;;      Params:         0       0       0       0
  4963 ;;      Locals:         0       0       0       0
  4964 ;;      Temps:          0       0       0       0
  4965 ;;      Totals:         0       0       0       0
  4966 ;;Total ram usage:        0 bytes
  4967 ;; Hardware stack levels used:    1
  4968 ;; Hardware stack levels required when called:    7
  4969 ;; This function calls:
  4970 ;;		_USBCheckStdRequest
  4971 ;;		_USBCtrlEPServiceComplete
  4972 ;;		_USER_USB_CALLBACK_EVENT_HANDLER
  4973 ;; This function is called by:
  4974 ;;		_USBCtrlEPService
  4975 ;; This function uses a non-reentrant model
  4976 ;;
  4977                           
  4978                           	psect	text25
  4979  001AAE                     __ptext25:
  4980                           	opt stack 0
  4981  001AAE                     _USBCtrlTrfSetupHandler:
  4982                           	opt stack 17
  4983                           
  4984                           ;usb_device.c: 2488: shortPacketStatus = 0;
  4985                           
  4986                           ;incstack = 0
  4987  001AAE  0E00               	movlw	0
  4988  001AB0  6E28               	movwf	_shortPacketStatus,c	;volatile
  4989                           
  4990                           ;usb_device.c: 2489: USBDeferStatusStagePacket = 0;
  4991  001AB2  0E00               	movlw	0
  4992  001AB4  6E1E               	movwf	_USBDeferStatusStagePacket,c	;volatile
  4993                           
  4994                           ;usb_device.c: 2490: USBDeferINDataStagePackets = 0;
  4995  001AB6  0E00               	movlw	0
  4996  001AB8  0100               	movlb	0	; () banked
  4997  001ABA  6FE8               	movwf	_USBDeferINDataStagePackets& (0+255),b	;volatile
  4998                           
  4999                           ;usb_device.c: 2491: USBDeferOUTDataStagePackets = 0;
  5000  001ABC  0E00               	movlw	0
  5001  001ABE  0100               	movlb	0	; () banked
  5002  001AC0  6FE9               	movwf	_USBDeferOUTDataStagePackets& (0+255),b	;volatile
  5003                           
  5004                           ;usb_device.c: 2492: BothEP0OutUOWNsSet = 0;
  5005  001AC2  0E00               	movlw	0
  5006  001AC4  6E1B               	movwf	_BothEP0OutUOWNsSet,c	;volatile
  5007                           
  5008                           ;usb_device.c: 2493: controlTransferState = 0;
  5009  001AC6  0E00               	movlw	0
  5010  001AC8  6E26               	movwf	_controlTransferState,c	;volatile
  5011                           
  5012                           ; BSR set to: 0
  5013                           ;usb_device.c: 2502: pBDTEntryIn[0]->STAT.Val &= ~(0x80);
  5014  001ACA  C00F  FFD9         	movff	_pBDTEntryIn,fsr2l
  5015  001ACE  C010  FFDA         	movff	_pBDTEntryIn+1,fsr2h
  5016  001AD2  0E7F               	movlw	127
  5017  001AD4  16DF               	andwf	indf2,f,c
  5018                           
  5019                           ; BSR set to: 0
  5020                           ;usb_device.c: 2503: ((uint8_t_VAL*)&pBDTEntryIn[0])->Val ^= 0x0004;
  5021  001AD6  0E04               	movlw	4
  5022  001AD8  1A0F               	xorwf	_pBDTEntryIn,f,c
  5023                           
  5024                           ; BSR set to: 0
  5025                           ;usb_device.c: 2504: pBDTEntryIn[0]->STAT.Val &= ~(0x80);
  5026  001ADA  C00F  FFD9         	movff	_pBDTEntryIn,fsr2l
  5027  001ADE  C010  FFDA         	movff	_pBDTEntryIn+1,fsr2h
  5028  001AE2  0E7F               	movlw	127
  5029  001AE4  16DF               	andwf	indf2,f,c
  5030                           
  5031                           ; BSR set to: 0
  5032                           ;usb_device.c: 2505: ((uint8_t_VAL*)&pBDTEntryIn[0])->Val ^= 0x0004;
  5033  001AE6  0E04               	movlw	4
  5034  001AE8  1A0F               	xorwf	_pBDTEntryIn,f,c
  5035                           
  5036                           ; BSR set to: 0
  5037                           ;usb_device.c: 2506: pBDTEntryEP0OutNext->STAT.Val &= ~(0x80);
  5038  001AEA  C019  FFD9         	movff	_pBDTEntryEP0OutNext,fsr2l
  5039  001AEE  C01A  FFDA         	movff	_pBDTEntryEP0OutNext+1,fsr2h
  5040  001AF2  0E7F               	movlw	127
  5041  001AF4  16DF               	andwf	indf2,f,c
  5042                           
  5043                           ; BSR set to: 0
  5044                           ;usb_device.c: 2508: inPipes[0].info.Val = 0;
  5045  001AF6  0E00               	movlw	0
  5046  001AF8  6E0C               	movwf	_inPipes+3,c	;volatile
  5047                           
  5048                           ; BSR set to: 0
  5049                           ;usb_device.c: 2509: inPipes[0].wCount.Val = 0;
  5050  001AFA  0E00               	movlw	0
  5051  001AFC  6E0E               	movwf	_inPipes+5,c	;volatile
  5052  001AFE  0E00               	movlw	0
  5053  001B00  6E0D               	movwf	_inPipes+4,c	;volatile
  5054                           
  5055                           ; BSR set to: 0
  5056                           ;usb_device.c: 2510: outPipes[0].info.Val = 0;
  5057  001B02  0E00               	movlw	0
  5058  001B04  6E04               	movwf	_outPipes+3,c	;volatile
  5059                           
  5060                           ; BSR set to: 0
  5061                           ;usb_device.c: 2511: outPipes[0].wCount.Val = 0;
  5062  001B06  0E00               	movlw	0
  5063  001B08  6E06               	movwf	_outPipes+5,c	;volatile
  5064  001B0A  0E00               	movlw	0
  5065  001B0C  6E05               	movwf	_outPipes+4,c	;volatile
  5066                           
  5067                           ; BSR set to: 0
  5068                           ;usb_device.c: 2517: USBCheckStdRequest();
  5069  001B0E  ECD7  F008         	call	_USBCheckStdRequest	;wreg free
  5070                           
  5071                           ;usb_device.c: 2518: USER_USB_CALLBACK_EVENT_HANDLER(EVENT_EP0_REQUEST,0,0);
  5072  001B12  0E00               	movlw	0
  5073  001B14  6E38               	movwf	USER_USB_CALLBACK_EVENT_HANDLER@event+1,c
  5074  001B16  0E03               	movlw	3
  5075  001B18  6E37               	movwf	USER_USB_CALLBACK_EVENT_HANDLER@event,c
  5076  001B1A  0E00               	movlw	0
  5077  001B1C  6E39               	movwf	USER_USB_CALLBACK_EVENT_HANDLER@pdata,c
  5078  001B1E  0E00               	movlw	0
  5079  001B20  6E3A               	movwf	USER_USB_CALLBACK_EVENT_HANDLER@pdata+1,c
  5080  001B22  0E00               	movlw	0
  5081  001B24  6E3C               	movwf	USER_USB_CALLBACK_EVENT_HANDLER@size+1,c
  5082  001B26  0E00               	movlw	0
  5083  001B28  6E3B               	movwf	USER_USB_CALLBACK_EVENT_HANDLER@size,c
  5084  001B2A  ECD6  F00D         	call	_USER_USB_CALLBACK_EVENT_HANDLER	;wreg free
  5085                           
  5086                           ;usb_device.c: 2531: USBCtrlEPServiceComplete();
  5087  001B2E  ECEF  F007         	call	_USBCtrlEPServiceComplete	;wreg free
  5088  001B32  0012               	return		;funcret
  5089  001B34                     __end_of_USBCtrlTrfSetupHandler:
  5090                           	opt stack 0
  5091                           pclatu	equ	0xFFB
  5092                           pclath	equ	0xFFA
  5093                           tblptru	equ	0xFF8
  5094                           tblptrh	equ	0xFF7
  5095                           tblptrl	equ	0xFF6
  5096                           tablat	equ	0xFF5
  5097                           prodh	equ	0xFF4
  5098                           prodl	equ	0xFF3
  5099                           intcon	equ	0xFF2
  5100                           postinc0	equ	0xFEE
  5101                           fsr0h	equ	0xFEA
  5102                           fsr0l	equ	0xFE9
  5103                           wreg	equ	0xFE8
  5104                           indf1	equ	0xFE7
  5105                           fsr1h	equ	0xFE2
  5106                           fsr1l	equ	0xFE1
  5107                           indf2	equ	0xFDF
  5108                           postinc2	equ	0xFDE
  5109                           postdec2	equ	0xFDD
  5110                           plusw2	equ	0xFDB
  5111                           fsr2h	equ	0xFDA
  5112                           fsr2l	equ	0xFD9
  5113                           status	equ	0xFD8
  5114                           
  5115 ;; *************** function _USBCtrlEPServiceComplete *****************
  5116 ;; Defined at:
  5117 ;;		line 1634 in file "CDCLib/usb_device.c"
  5118 ;; Parameters:    Size  Location     Type
  5119 ;;		None
  5120 ;; Auto vars:     Size  Location     Type
  5121 ;;		None
  5122 ;; Return value:  Size  Location     Type
  5123 ;;		None               void
  5124 ;; Registers used:
  5125 ;;		wreg, fsr1l, fsr1h, fsr2l, fsr2h, status,2, status,0, tblptrl, tblptrh, tblptru, cstack
  5126 ;; Tracked objects:
  5127 ;;		On entry : 0/0
  5128 ;;		On exit  : 0/0
  5129 ;;		Unchanged: 0/0
  5130 ;; Data sizes:     COMRAM   BANK0   BANK1   BANK2
  5131 ;;      Params:         0       0       0       0
  5132 ;;      Locals:         0       0       0       0
  5133 ;;      Temps:          0       0       0       0
  5134 ;;      Totals:         0       0       0       0
  5135 ;;Total ram usage:        0 bytes
  5136 ;; Hardware stack levels used:    1
  5137 ;; Hardware stack levels required when called:    2
  5138 ;; This function calls:
  5139 ;;		_USBCtrlEPAllowDataStage
  5140 ;;		_USBCtrlEPAllowStatusStage
  5141 ;; This function is called by:
  5142 ;;		_USBCtrlTrfSetupHandler
  5143 ;; This function uses a non-reentrant model
  5144 ;;
  5145                           
  5146                           	psect	text26
  5147  000FDE                     __ptext26:
  5148                           	opt stack 0
  5149  000FDE                     _USBCtrlEPServiceComplete:
  5150                           	opt stack 21
  5151                           
  5152                           ;usb_device.c: 1640: UCONbits.PKTDIS = 0;
  5153                           
  5154                           ;incstack = 0
  5155  000FDE  9864               	bcf	3940,4,c	;volatile
  5156                           
  5157                           ;usb_device.c: 1646: if(inPipes[0].info.bits.busy == 0)
  5158  000FE0  BE0C               	btfsc	_inPipes+3,7,c	;volatile
  5159  000FE2  D039               	goto	i2l252
  5160                           
  5161                           ;usb_device.c: 1647: {
  5162                           ;usb_device.c: 1648: if(outPipes[0].info.bits.busy == 1)
  5163  000FE4  AE04               	btfss	_outPipes+3,7,c	;volatile
  5164  000FE6  D00C               	goto	i2l3208
  5165                           
  5166                           ;usb_device.c: 1649: {
  5167                           ;usb_device.c: 1650: controlTransferState = 2;
  5168  000FE8  0E02               	movlw	2
  5169  000FEA  6E26               	movwf	_controlTransferState,c	;volatile
  5170                           
  5171                           ;usb_device.c: 1661: if(USBDeferOUTDataStagePackets == 0)
  5172  000FEC  0100               	movlb	0	; () banked
  5173  000FEE  51E9               	movf	_USBDeferOUTDataStagePackets& (0+255),w,b	;volatile
  5174  000FF0  B4D8               	btfsc	status,2,c
  5175                           
  5176                           ; BSR set to: 0
  5177                           ;usb_device.c: 1662: {
  5178                           ;usb_device.c: 1663: USBCtrlEPAllowDataStage();
  5179  000FF2  EC2F  F00C         	call	_USBCtrlEPAllowDataStage	;wreg free
  5180                           
  5181                           ;usb_device.c: 1664: }
  5182                           ;usb_device.c: 1668: USBStatusStageEnabledFlag2 = 0;
  5183  000FF6  0E00               	movlw	0
  5184  000FF8  6E21               	movwf	_USBStatusStageEnabledFlag2,c	;volatile
  5185                           
  5186                           ;usb_device.c: 1669: USBStatusStageEnabledFlag1 = 0;
  5187  000FFA  0E00               	movlw	0
  5188  000FFC  6E20               	movwf	_USBStatusStageEnabledFlag1,c	;volatile
  5189                           
  5190                           ;usb_device.c: 1670: }
  5191  000FFE  0012               	return	
  5192  001000                     i2l3208:
  5193                           
  5194                           ;usb_device.c: 1671: else
  5195                           ;usb_device.c: 1672: {
  5196                           ;usb_device.c: 1677: pBDTEntryEP0OutNext->CNT = 8;
  5197  001000  EE20 F001          	lfsr	2,1
  5198  001004  5019               	movf	_pBDTEntryEP0OutNext,w,c
  5199  001006  26D9               	addwf	fsr2l,f,c
  5200  001008  501A               	movf	_pBDTEntryEP0OutNext+1,w,c
  5201  00100A  22DA               	addwfc	fsr2h,f,c
  5202  00100C  0E08               	movlw	8
  5203  00100E  6EDF               	movwf	indf2,c
  5204                           
  5205                           ;usb_device.c: 1678: pBDTEntryEP0OutNext->ADR = ((uint16_t)(&SetupPkt));
  5206  001010  EE20 F002          	lfsr	2,2
  5207  001014  5019               	movf	_pBDTEntryEP0OutNext,w,c
  5208  001016  26D9               	addwf	fsr2l,f,c
  5209  001018  501A               	movf	_pBDTEntryEP0OutNext+1,w,c
  5210  00101A  22DA               	addwfc	fsr2h,f,c
  5211  00101C  0E30               	movlw	48
  5212  00101E  6EDE               	movwf	postinc2,c
  5213  001020  0E02               	movlw	2
  5214  001022  6EDD               	movwf	postdec2,c
  5215                           
  5216                           ;usb_device.c: 1679: pBDTEntryEP0OutNext->STAT.Val = 0x00|(0x08 & 0x08)|0x04;
  5217  001024  C019  FFD9         	movff	_pBDTEntryEP0OutNext,fsr2l
  5218  001028  C01A  FFDA         	movff	_pBDTEntryEP0OutNext+1,fsr2h
  5219  00102C  0E0C               	movlw	12
  5220  00102E  6EDF               	movwf	indf2,c
  5221                           
  5222                           ;usb_device.c: 1680: pBDTEntryEP0OutNext->STAT.Val |= 0x80;
  5223  001030  C019  FFD9         	movff	_pBDTEntryEP0OutNext,fsr2l
  5224  001034  C01A  FFDA         	movff	_pBDTEntryEP0OutNext+1,fsr2h
  5225  001038  0E00               	movlw	0
  5226  00103A  8EDB               	bsf	plusw2,7,c
  5227                           
  5228                           ;usb_device.c: 1681: pBDTEntryIn[0]->STAT.Val = 0x04;
  5229  00103C  C00F  FFD9         	movff	_pBDTEntryIn,fsr2l
  5230  001040  C010  FFDA         	movff	_pBDTEntryIn+1,fsr2h
  5231  001044  0E04               	movlw	4
  5232  001046  6EDF               	movwf	indf2,c
  5233                           
  5234                           ;usb_device.c: 1682: pBDTEntryIn[0]->STAT.Val |= 0x80;
  5235  001048  C00F  FFD9         	movff	_pBDTEntryIn,fsr2l
  5236  00104C  C010  FFDA         	movff	_pBDTEntryIn+1,fsr2h
  5237  001050  0E00               	movlw	0
  5238  001052  8EDB               	bsf	plusw2,7,c
  5239                           
  5240                           ;usb_device.c: 1683: }
  5241                           ;usb_device.c: 1684: }
  5242  001054  0012               	return	
  5243  001056                     i2l252:
  5244                           
  5245                           ;usb_device.c: 1685: else
  5246                           ;usb_device.c: 1686: {
  5247                           ;usb_device.c: 1687: if(SetupPkt.DataDir == (0x80>>7))
  5248  001056  0102               	movlb	2	; () banked
  5249  001058  AF30               	btfss	48,7,b	;volatile
  5250  00105A  D011               	goto	i2l3228
  5251                           
  5252                           ; BSR set to: 2
  5253                           ;usb_device.c: 1688: {
  5254                           ;usb_device.c: 1689: controlTransferState = 1;
  5255  00105C  0E01               	movlw	1
  5256  00105E  6E26               	movwf	_controlTransferState,c	;volatile
  5257                           
  5258                           ;usb_device.c: 1703: if(USBDeferINDataStagePackets == 0)
  5259  001060  0100               	movlb	0	; () banked
  5260  001062  51E8               	movf	_USBDeferINDataStagePackets& (0+255),w,b	;volatile
  5261  001064  B4D8               	btfsc	status,2,c
  5262                           
  5263                           ; BSR set to: 0
  5264                           ;usb_device.c: 1704: {
  5265                           ;usb_device.c: 1705: USBCtrlEPAllowDataStage();
  5266  001066  EC2F  F00C         	call	_USBCtrlEPAllowDataStage	;wreg free
  5267                           
  5268                           ;usb_device.c: 1706: }
  5269                           ;usb_device.c: 1728: USBStatusStageEnabledFlag2 = 0;
  5270  00106A  0E00               	movlw	0
  5271  00106C  6E21               	movwf	_USBStatusStageEnabledFlag2,c	;volatile
  5272                           
  5273                           ;usb_device.c: 1729: USBStatusStageEnabledFlag1 = 0;
  5274  00106E  0E00               	movlw	0
  5275  001070  6E20               	movwf	_USBStatusStageEnabledFlag1,c	;volatile
  5276                           
  5277                           ;usb_device.c: 1730: if(USBDeferStatusStagePacket == 0)
  5278  001072  501E               	movf	_USBDeferStatusStagePacket,w,c	;volatile
  5279  001074  A4D8               	btfss	status,2,c
  5280  001076  0012               	return	
  5281                           
  5282                           ;usb_device.c: 1731: {
  5283                           ;usb_device.c: 1732: USBCtrlEPAllowStatusStage();
  5284  001078  EC17  F00A         	call	_USBCtrlEPAllowStatusStage	;wreg free
  5285                           
  5286                           ;usb_device.c: 1733: }
  5287                           ;usb_device.c: 1734: }
  5288  00107C  0012               	return	
  5289  00107E                     i2l3228:
  5290                           
  5291                           ;usb_device.c: 1735: else
  5292                           ;usb_device.c: 1736: {
  5293                           ;usb_device.c: 1747: controlTransferState = 2;
  5294  00107E  0E02               	movlw	2
  5295  001080  6E26               	movwf	_controlTransferState,c	;volatile
  5296                           
  5297                           ;usb_device.c: 1750: pBDTEntryEP0OutNext->CNT = 8;
  5298  001082  EE20 F001          	lfsr	2,1
  5299  001086  5019               	movf	_pBDTEntryEP0OutNext,w,c
  5300  001088  26D9               	addwf	fsr2l,f,c
  5301  00108A  501A               	movf	_pBDTEntryEP0OutNext+1,w,c
  5302  00108C  22DA               	addwfc	fsr2h,f,c
  5303  00108E  0E08               	movlw	8
  5304  001090  6EDF               	movwf	indf2,c
  5305                           
  5306                           ;usb_device.c: 1751: pBDTEntryEP0OutNext->ADR = ((uint16_t)(&SetupPkt));
  5307  001092  EE20 F002          	lfsr	2,2
  5308  001096  5019               	movf	_pBDTEntryEP0OutNext,w,c
  5309  001098  26D9               	addwf	fsr2l,f,c
  5310  00109A  501A               	movf	_pBDTEntryEP0OutNext+1,w,c
  5311  00109C  22DA               	addwfc	fsr2h,f,c
  5312  00109E  0E30               	movlw	48
  5313  0010A0  6EDE               	movwf	postinc2,c
  5314  0010A2  0E02               	movlw	2
  5315  0010A4  6EDD               	movwf	postdec2,c
  5316                           
  5317                           ;usb_device.c: 1752: pBDTEntryEP0OutNext->STAT.Val = 0x04;
  5318  0010A6  C019  FFD9         	movff	_pBDTEntryEP0OutNext,fsr2l
  5319  0010AA  C01A  FFDA         	movff	_pBDTEntryEP0OutNext+1,fsr2h
  5320  0010AE  0E04               	movlw	4
  5321  0010B0  6EDF               	movwf	indf2,c
  5322                           
  5323                           ;usb_device.c: 1753: pBDTEntryEP0OutNext->STAT.Val |= 0x80;
  5324  0010B2  C019  FFD9         	movff	_pBDTEntryEP0OutNext,fsr2l
  5325  0010B6  C01A  FFDA         	movff	_pBDTEntryEP0OutNext+1,fsr2h
  5326  0010BA  0E00               	movlw	0
  5327  0010BC  8EDB               	bsf	plusw2,7,c
  5328                           
  5329                           ;usb_device.c: 1756: USBStatusStageEnabledFlag2 = 0;
  5330  0010BE  0E00               	movlw	0
  5331  0010C0  6E21               	movwf	_USBStatusStageEnabledFlag2,c	;volatile
  5332                           
  5333                           ;usb_device.c: 1757: USBStatusStageEnabledFlag1 = 0;
  5334  0010C2  0E00               	movlw	0
  5335  0010C4  6E20               	movwf	_USBStatusStageEnabledFlag1,c	;volatile
  5336                           
  5337                           ;usb_device.c: 1758: if(USBDeferStatusStagePacket == 0)
  5338  0010C6  501E               	movf	_USBDeferStatusStagePacket,w,c	;volatile
  5339  0010C8  A4D8               	btfss	status,2,c
  5340  0010CA  0012               	return	
  5341                           
  5342                           ;usb_device.c: 1759: {
  5343                           ;usb_device.c: 1760: USBCtrlEPAllowStatusStage();
  5344  0010CC  EC17  F00A         	call	_USBCtrlEPAllowStatusStage	;wreg free
  5345  0010D0  0012               	return	
  5346  0010D2                     __end_of_USBCtrlEPServiceComplete:
  5347                           	opt stack 0
  5348                           pclatu	equ	0xFFB
  5349                           pclath	equ	0xFFA
  5350                           tblptru	equ	0xFF8
  5351                           tblptrh	equ	0xFF7
  5352                           tblptrl	equ	0xFF6
  5353                           tablat	equ	0xFF5
  5354                           prodh	equ	0xFF4
  5355                           prodl	equ	0xFF3
  5356                           intcon	equ	0xFF2
  5357                           postinc0	equ	0xFEE
  5358                           fsr0h	equ	0xFEA
  5359                           fsr0l	equ	0xFE9
  5360                           wreg	equ	0xFE8
  5361                           indf1	equ	0xFE7
  5362                           fsr1h	equ	0xFE2
  5363                           fsr1l	equ	0xFE1
  5364                           indf2	equ	0xFDF
  5365                           postinc2	equ	0xFDE
  5366                           postdec2	equ	0xFDD
  5367                           plusw2	equ	0xFDB
  5368                           fsr2h	equ	0xFDA
  5369                           fsr2l	equ	0xFD9
  5370                           status	equ	0xFD8
  5371                           
  5372 ;; *************** function _USBCtrlEPAllowDataStage *****************
  5373 ;; Defined at:
  5374 ;;		line 1506 in file "CDCLib/usb_device.c"
  5375 ;; Parameters:    Size  Location     Type
  5376 ;;		None
  5377 ;; Auto vars:     Size  Location     Type
  5378 ;;		None
  5379 ;; Return value:  Size  Location     Type
  5380 ;;		None               void
  5381 ;; Registers used:
  5382 ;;		wreg, fsr1l, fsr1h, fsr2l, fsr2h, status,2, status,0, tblptrl, tblptrh, tblptru, cstack
  5383 ;; Tracked objects:
  5384 ;;		On entry : 0/0
  5385 ;;		On exit  : 0/0
  5386 ;;		Unchanged: 0/0
  5387 ;; Data sizes:     COMRAM   BANK0   BANK1   BANK2
  5388 ;;      Params:         0       0       0       0
  5389 ;;      Locals:         0       0       0       0
  5390 ;;      Temps:          0       0       0       0
  5391 ;;      Totals:         0       0       0       0
  5392 ;;Total ram usage:        0 bytes
  5393 ;; Hardware stack levels used:    1
  5394 ;; Hardware stack levels required when called:    1
  5395 ;; This function calls:
  5396 ;;		_USBCtrlTrfTxService
  5397 ;; This function is called by:
  5398 ;;		_USBCtrlEPServiceComplete
  5399 ;; This function uses a non-reentrant model
  5400 ;;
  5401                           
  5402                           	psect	text27
  5403  00185E                     __ptext27:
  5404                           	opt stack 0
  5405  00185E                     _USBCtrlEPAllowDataStage:
  5406                           	opt stack 21
  5407                           
  5408                           ;usb_device.c: 1508: USBDeferINDataStagePackets = 0;
  5409                           
  5410                           ;incstack = 0
  5411  00185E  0E00               	movlw	0
  5412  001860  0100               	movlb	0	; () banked
  5413  001862  6FE8               	movwf	_USBDeferINDataStagePackets& (0+255),b	;volatile
  5414                           
  5415                           ;usb_device.c: 1509: USBDeferOUTDataStagePackets = 0;
  5416  001864  0E00               	movlw	0
  5417  001866  0100               	movlb	0	; () banked
  5418  001868  6FE9               	movwf	_USBDeferOUTDataStagePackets& (0+255),b	;volatile
  5419                           
  5420                           ; BSR set to: 0
  5421                           ;usb_device.c: 1511: if(controlTransferState == 2)
  5422  00186A  0E02               	movlw	2
  5423  00186C  1826               	xorwf	_controlTransferState,w,c	;volatile
  5424  00186E  A4D8               	btfss	status,2,c
  5425  001870  D01F               	goto	i2l3002
  5426                           
  5427                           ; BSR set to: 0
  5428                           ;usb_device.c: 1512: {
  5429                           ;usb_device.c: 1514: pBDTEntryEP0OutNext->CNT = 8;
  5430  001872  EE20 F001          	lfsr	2,1
  5431  001876  5019               	movf	_pBDTEntryEP0OutNext,w,c
  5432  001878  26D9               	addwf	fsr2l,f,c
  5433  00187A  501A               	movf	_pBDTEntryEP0OutNext+1,w,c
  5434  00187C  22DA               	addwfc	fsr2h,f,c
  5435  00187E  0E08               	movlw	8
  5436  001880  6EDF               	movwf	indf2,c
  5437                           
  5438                           ;usb_device.c: 1515: pBDTEntryEP0OutNext->ADR = ((uint16_t)(&CtrlTrfData));
  5439  001882  EE20 F002          	lfsr	2,2
  5440  001886  5019               	movf	_pBDTEntryEP0OutNext,w,c
  5441  001888  26D9               	addwf	fsr2l,f,c
  5442  00188A  501A               	movf	_pBDTEntryEP0OutNext+1,w,c
  5443  00188C  22DA               	addwfc	fsr2h,f,c
  5444  00188E  0E38               	movlw	56
  5445  001890  6EDE               	movwf	postinc2,c
  5446  001892  0E02               	movlw	2
  5447  001894  6EDD               	movwf	postdec2,c
  5448                           
  5449                           ; BSR set to: 0
  5450                           ;usb_device.c: 1516: pBDTEntryEP0OutNext->STAT.Val = 0x40|(0x08 & 0x08);
  5451  001896  C019  FFD9         	movff	_pBDTEntryEP0OutNext,fsr2l
  5452  00189A  C01A  FFDA         	movff	_pBDTEntryEP0OutNext+1,fsr2h
  5453  00189E  0E48               	movlw	72
  5454  0018A0  6EDF               	movwf	indf2,c
  5455                           
  5456                           ; BSR set to: 0
  5457                           ;usb_device.c: 1517: pBDTEntryEP0OutNext->STAT.Val |= 0x80;
  5458  0018A2  C019  FFD9         	movff	_pBDTEntryEP0OutNext,fsr2l
  5459  0018A6  C01A  FFDA         	movff	_pBDTEntryEP0OutNext+1,fsr2h
  5460  0018AA  0E00               	movlw	0
  5461  0018AC  8EDB               	bsf	plusw2,7,c
  5462                           
  5463                           ;usb_device.c: 1518: }
  5464  0018AE  0012               	return	
  5465  0018B0                     i2l3002:
  5466                           
  5467                           ; BSR set to: 0
  5468                           ;usb_device.c: 1519: else
  5469                           ;usb_device.c: 1520: {
  5470                           ;usb_device.c: 1523: if(SetupPkt.wLength < inPipes[0].wCount.Val)
  5471  0018B0  500D               	movf	_inPipes+4,w,c	;volatile
  5472  0018B2  0102               	movlb	2	; () banked
  5473  0018B4  5D36               	subwf	54,w,b	;volatile
  5474  0018B6  500E               	movf	_inPipes+5,w,c	;volatile
  5475  0018B8  0102               	movlb	2	; () banked
  5476  0018BA  5937               	subwfb	55,w,b	;volatile
  5477  0018BC  B0D8               	btfsc	status,0,c
  5478  0018BE  D004               	goto	i2l3006
  5479                           
  5480                           ; BSR set to: 2
  5481                           ;usb_device.c: 1524: {
  5482                           ;usb_device.c: 1525: inPipes[0].wCount.Val = SetupPkt.wLength;
  5483  0018C0  C236 F00D          	movff	566,_inPipes+4	;volatile
  5484  0018C4  C237 F00E          	movff	567,_inPipes+5	;volatile
  5485  0018C8                     i2l3006:
  5486                           
  5487                           ; BSR set to: 2
  5488                           ;usb_device.c: 1526: }
  5489                           ;usb_device.c: 1527: USBCtrlTrfTxService();
  5490  0018C8  ECB0  F009         	call	_USBCtrlTrfTxService	;wreg free
  5491                           
  5492                           ;usb_device.c: 1532: pBDTEntryIn[0]->ADR = ((uint16_t)(&CtrlTrfData));
  5493  0018CC  EE20 F002          	lfsr	2,2
  5494  0018D0  500F               	movf	_pBDTEntryIn,w,c
  5495  0018D2  26D9               	addwf	fsr2l,f,c
  5496  0018D4  5010               	movf	_pBDTEntryIn+1,w,c
  5497  0018D6  22DA               	addwfc	fsr2h,f,c
  5498  0018D8  0E38               	movlw	56
  5499  0018DA  6EDE               	movwf	postinc2,c
  5500  0018DC  0E02               	movlw	2
  5501  0018DE  6EDD               	movwf	postdec2,c
  5502                           
  5503                           ;usb_device.c: 1533: pBDTEntryIn[0]->STAT.Val = 0x40|(0x08 & 0x08);
  5504  0018E0  C00F  FFD9         	movff	_pBDTEntryIn,fsr2l
  5505  0018E4  C010  FFDA         	movff	_pBDTEntryIn+1,fsr2h
  5506  0018E8  0E48               	movlw	72
  5507  0018EA  6EDF               	movwf	indf2,c
  5508                           
  5509                           ;usb_device.c: 1534: pBDTEntryIn[0]->STAT.Val |= 0x80;
  5510  0018EC  C00F  FFD9         	movff	_pBDTEntryIn,fsr2l
  5511  0018F0  C010  FFDA         	movff	_pBDTEntryIn+1,fsr2h
  5512  0018F4  0E00               	movlw	0
  5513  0018F6  8EDB               	bsf	plusw2,7,c
  5514  0018F8  0012               	return	
  5515  0018FA                     __end_of_USBCtrlEPAllowDataStage:
  5516                           	opt stack 0
  5517                           pclatu	equ	0xFFB
  5518                           pclath	equ	0xFFA
  5519                           tblptru	equ	0xFF8
  5520                           tblptrh	equ	0xFF7
  5521                           tblptrl	equ	0xFF6
  5522                           tablat	equ	0xFF5
  5523                           prodh	equ	0xFF4
  5524                           prodl	equ	0xFF3
  5525                           intcon	equ	0xFF2
  5526                           postinc0	equ	0xFEE
  5527                           fsr0h	equ	0xFEA
  5528                           fsr0l	equ	0xFE9
  5529                           wreg	equ	0xFE8
  5530                           indf1	equ	0xFE7
  5531                           fsr1h	equ	0xFE2
  5532                           fsr1l	equ	0xFE1
  5533                           indf2	equ	0xFDF
  5534                           postinc2	equ	0xFDE
  5535                           postdec2	equ	0xFDD
  5536                           plusw2	equ	0xFDB
  5537                           fsr2h	equ	0xFDA
  5538                           fsr2l	equ	0xFD9
  5539                           status	equ	0xFD8
  5540                           
  5541 ;; *************** function _USBCheckStdRequest *****************
  5542 ;; Defined at:
  5543 ;;		line 2703 in file "CDCLib/usb_device.c"
  5544 ;; Parameters:    Size  Location     Type
  5545 ;;		None
  5546 ;; Auto vars:     Size  Location     Type
  5547 ;;		None
  5548 ;; Return value:  Size  Location     Type
  5549 ;;		None               void
  5550 ;; Registers used:
  5551 ;;		wreg, fsr1l, fsr1h, fsr2l, fsr2h, status,2, status,0, tblptrl, tblptrh, tblptru, prodl, prodh, cstack
  5552 ;; Tracked objects:
  5553 ;;		On entry : 0/0
  5554 ;;		On exit  : 0/0
  5555 ;;		Unchanged: 0/0
  5556 ;; Data sizes:     COMRAM   BANK0   BANK1   BANK2
  5557 ;;      Params:         0       0       0       0
  5558 ;;      Locals:         0       0       0       0
  5559 ;;      Temps:          0       0       0       0
  5560 ;;      Totals:         0       0       0       0
  5561 ;;Total ram usage:        0 bytes
  5562 ;; Hardware stack levels used:    1
  5563 ;; Hardware stack levels required when called:    6
  5564 ;; This function calls:
  5565 ;;		_USBStdFeatureReqHandler
  5566 ;;		_USBStdGetDscHandler
  5567 ;;		_USBStdGetStatusHandler
  5568 ;;		_USBStdSetCfgHandler
  5569 ;;		_USER_USB_CALLBACK_EVENT_HANDLER
  5570 ;; This function is called by:
  5571 ;;		_USBCtrlTrfSetupHandler
  5572 ;; This function uses a non-reentrant model
  5573 ;;
  5574                           
  5575                           	psect	text28
  5576  0011AE                     __ptext28:
  5577                           	opt stack 0
  5578  0011AE                     _USBCheckStdRequest:
  5579                           	opt stack 17
  5580                           
  5581                           ;usb_device.c: 2705: if(SetupPkt.RequestType != (0x00>>5)) return;
  5582                           
  5583                           ;incstack = 0
  5584  0011AE  0102               	movlb	2	; () banked
  5585  0011B0  3930               	swapf	48,w,b	;volatile
  5586  0011B2  32E8               	rrcf	wreg,f,c
  5587  0011B4  0B03               	andlw	3
  5588  0011B6  0900               	iorlw	0
  5589  0011B8  A4D8               	btfss	status,2,c
  5590  0011BA  0012               	return	
  5591  0011BC  D043               	goto	i2l3326
  5592  0011BE                     i2l377:
  5593                           
  5594                           ; BSR set to: 2
  5595                           ;usb_device.c: 2710: inPipes[0].info.bits.busy = 1;
  5596  0011BE  8E0C               	bsf	_inPipes+3,7,c	;volatile
  5597                           
  5598                           ; BSR set to: 2
  5599                           ;usb_device.c: 2711: USBDeviceState = ADR_PENDING_STATE;
  5600  0011C0  0E08               	movlw	8
  5601  0011C2  6E1F               	movwf	_USBDeviceState,c	;volatile
  5602                           
  5603                           ;usb_device.c: 2713: break;
  5604  0011C4  0012               	return	
  5605  0011C6                     i2l3296:
  5606                           
  5607                           ; BSR set to: 2
  5608                           ;usb_device.c: 2715: USBStdGetDscHandler();
  5609  0011C6  ECD9  F006         	call	_USBStdGetDscHandler	;wreg free
  5610                           
  5611                           ;usb_device.c: 2716: break;
  5612  0011CA  0012               	return	
  5613  0011CC                     i2l3298:
  5614                           
  5615                           ;usb_device.c: 2718: USBStdSetCfgHandler();
  5616  0011CC  EC69  F008         	call	_USBStdSetCfgHandler	;wreg free
  5617                           
  5618                           ;usb_device.c: 2719: break;
  5619  0011D0  0012               	return	
  5620  0011D2                     i2l3300:
  5621                           
  5622                           ;usb_device.c: 2721: inPipes[0].pSrc.bRam = (uint8_t*)&USBActiveConfiguration;
  5623  0011D2  0E29               	movlw	low _USBActiveConfiguration
  5624  0011D4  6E09               	movwf	_inPipes,c	;volatile
  5625  0011D6  0E00               	movlw	high _USBActiveConfiguration
  5626  0011D8  6E0A               	movwf	_inPipes+1,c	;volatile
  5627                           
  5628                           ;usb_device.c: 2722: inPipes[0].info.bits.ctrl_trf_mem = 0x01;
  5629  0011DA  800C               	bsf	_inPipes+3,0,c	;volatile
  5630                           
  5631                           ;usb_device.c: 2723: inPipes[0].wCount.v[0] = 1;
  5632  0011DC  0E01               	movlw	1
  5633  0011DE  6E0D               	movwf	_inPipes+4,c	;volatile
  5634                           
  5635                           ;usb_device.c: 2724: inPipes[0].info.bits.busy = 1;
  5636  0011E0  8E0C               	bsf	_inPipes+3,7,c	;volatile
  5637                           
  5638                           ;usb_device.c: 2725: break;
  5639  0011E2  0012               	return	
  5640  0011E4                     i2l3308:
  5641                           
  5642                           ;usb_device.c: 2727: USBStdGetStatusHandler();
  5643  0011E4  EC88  F00B         	call	_USBStdGetStatusHandler	;wreg free
  5644                           
  5645                           ;usb_device.c: 2728: break;
  5646  0011E8  0012               	return	
  5647  0011EA                     i2l3310:
  5648                           
  5649                           ;usb_device.c: 2730: case 3:
  5650                           ;usb_device.c: 2731: USBStdFeatureReqHandler();
  5651  0011EA  ECF2  F001         	call	_USBStdFeatureReqHandler	;wreg free
  5652                           
  5653                           ;usb_device.c: 2732: break;
  5654  0011EE  0012               	return	
  5655  0011F0                     i2l3312:
  5656                           
  5657                           ;usb_device.c: 2734: inPipes[0].pSrc.bRam = (uint8_t*)&USBAlternateInterface[SetupPkt.bI
      +                          ntfID];
  5658  0011F0  0102               	movlb	2	; () banked
  5659  0011F2  5134               	movf	52,w,b	;volatile
  5660  0011F4  0D01               	mullw	1
  5661  0011F6  0EFC               	movlw	low _USBAlternateInterface
  5662  0011F8  24F3               	addwf	prodl,w,c
  5663  0011FA  6E09               	movwf	_inPipes,c	;volatile
  5664  0011FC  0E00               	movlw	high _USBAlternateInterface
  5665  0011FE  20F4               	addwfc	prodh,w,c
  5666  001200  6E0A               	movwf	_inPipes+1,c	;volatile
  5667                           
  5668                           ; BSR set to: 2
  5669                           ;usb_device.c: 2735: inPipes[0].info.bits.ctrl_trf_mem = 0x01;
  5670  001202  800C               	bsf	_inPipes+3,0,c	;volatile
  5671                           
  5672                           ; BSR set to: 2
  5673                           ;usb_device.c: 2736: inPipes[0].wCount.v[0] = 1;
  5674  001204  0E01               	movlw	1
  5675  001206  6E0D               	movwf	_inPipes+4,c	;volatile
  5676                           
  5677                           ; BSR set to: 2
  5678                           ;usb_device.c: 2737: inPipes[0].info.bits.busy = 1;
  5679  001208  8E0C               	bsf	_inPipes+3,7,c	;volatile
  5680                           
  5681                           ;usb_device.c: 2738: break;
  5682  00120A  0012               	return	
  5683  00120C                     i2l386:
  5684                           
  5685                           ; BSR set to: 2
  5686                           ;usb_device.c: 2740: inPipes[0].info.bits.busy = 1;
  5687  00120C  8E0C               	bsf	_inPipes+3,7,c	;volatile
  5688                           
  5689                           ; BSR set to: 2
  5690                           ;usb_device.c: 2741: USBAlternateInterface[SetupPkt.bIntfID] = SetupPkt.bAltID;
  5691  00120E  0102               	movlb	2	; () banked
  5692  001210  5134               	movf	52,w,b	;volatile
  5693  001212  0D01               	mullw	1
  5694  001214  0EFC               	movlw	low _USBAlternateInterface
  5695  001216  24F3               	addwf	prodl,w,c
  5696  001218  6ED9               	movwf	fsr2l,c
  5697  00121A  0E00               	movlw	high _USBAlternateInterface
  5698  00121C  20F4               	addwfc	prodh,w,c
  5699  00121E  6EDA               	movwf	fsr2h,c
  5700  001220  C232 FFDF          	movff	562,indf2	;volatile
  5701                           
  5702                           ;usb_device.c: 2742: break;
  5703  001224  0012               	return	
  5704  001226                     i2l3322:
  5705                           
  5706                           ; BSR set to: 2
  5707                           ;usb_device.c: 2744: USER_USB_CALLBACK_EVENT_HANDLER(EVENT_SET_DESCRIPTOR,0,0);
  5708  001226  0E00               	movlw	0
  5709  001228  6E38               	movwf	USER_USB_CALLBACK_EVENT_HANDLER@event+1,c
  5710  00122A  0E02               	movlw	2
  5711  00122C  6E37               	movwf	USER_USB_CALLBACK_EVENT_HANDLER@event,c
  5712  00122E  0E00               	movlw	0
  5713  001230  6E39               	movwf	USER_USB_CALLBACK_EVENT_HANDLER@pdata,c
  5714  001232  0E00               	movlw	0
  5715  001234  6E3A               	movwf	USER_USB_CALLBACK_EVENT_HANDLER@pdata+1,c
  5716  001236  0E00               	movlw	0
  5717  001238  6E3C               	movwf	USER_USB_CALLBACK_EVENT_HANDLER@size+1,c
  5718  00123A  0E00               	movlw	0
  5719  00123C  6E3B               	movwf	USER_USB_CALLBACK_EVENT_HANDLER@size,c
  5720  00123E  ECD6  F00D         	call	_USER_USB_CALLBACK_EVENT_HANDLER	;wreg free
  5721                           
  5722                           ;usb_device.c: 2749: }
  5723                           
  5724                           ;usb_device.c: 2748: break;
  5725                           
  5726                           ;usb_device.c: 2747: default:
  5727                           
  5728                           ;usb_device.c: 2746: case 12:
  5729                           
  5730                           ;usb_device.c: 2745: break;
  5731  001242  0012               	return	
  5732  001244                     i2l3326:
  5733  001244  0102               	movlb	2	; () banked
  5734  001246  5131               	movf	49,w,b	;volatile
  5735                           
  5736                           ; Switch size 1, requested type "space"
  5737                           ; Number of cases is 11, Range of values is 0 to 12
  5738                           ; switch strategies available:
  5739                           ; Name         Instructions Cycles
  5740                           ; simple_byte           34    18 (average)
  5741                           ;	Chosen strategy is simple_byte
  5742  001248  0A00               	xorlw	0	; case 0
  5743  00124A  B4D8               	btfsc	status,2,c
  5744  00124C  D7CB               	goto	i2l3308
  5745  00124E  0A01               	xorlw	1	; case 1
  5746  001250  B4D8               	btfsc	status,2,c
  5747  001252  D7CB               	goto	i2l3310
  5748  001254  0A02               	xorlw	2	; case 3
  5749  001256  B4D8               	btfsc	status,2,c
  5750  001258  D7C8               	goto	i2l3310
  5751  00125A  0A06               	xorlw	6	; case 5
  5752  00125C  B4D8               	btfsc	status,2,c
  5753  00125E  D7AF               	goto	i2l377
  5754  001260  0A03               	xorlw	3	; case 6
  5755  001262  B4D8               	btfsc	status,2,c
  5756  001264  D7B0               	goto	i2l3296
  5757  001266  0A01               	xorlw	1	; case 7
  5758  001268  B4D8               	btfsc	status,2,c
  5759  00126A  D7DD               	goto	i2l3322
  5760  00126C  0A0F               	xorlw	15	; case 8
  5761  00126E  B4D8               	btfsc	status,2,c
  5762  001270  D7B0               	goto	i2l3300
  5763  001272  0A01               	xorlw	1	; case 9
  5764  001274  B4D8               	btfsc	status,2,c
  5765  001276  D7AA               	goto	i2l3298
  5766  001278  0A03               	xorlw	3	; case 10
  5767  00127A  B4D8               	btfsc	status,2,c
  5768  00127C  D7B9               	goto	i2l3312
  5769  00127E  0A01               	xorlw	1	; case 11
  5770  001280  B4D8               	btfsc	status,2,c
  5771  001282  D7C4               	goto	i2l386
  5772  001284  0A07               	xorlw	7	; case 12
  5773  001286  0012               	return	
  5774  001288                     __end_of_USBCheckStdRequest:
  5775                           	opt stack 0
  5776                           pclatu	equ	0xFFB
  5777                           pclath	equ	0xFFA
  5778                           tblptru	equ	0xFF8
  5779                           tblptrh	equ	0xFF7
  5780                           tblptrl	equ	0xFF6
  5781                           tablat	equ	0xFF5
  5782                           prodh	equ	0xFF4
  5783                           prodl	equ	0xFF3
  5784                           intcon	equ	0xFF2
  5785                           postinc0	equ	0xFEE
  5786                           fsr0h	equ	0xFEA
  5787                           fsr0l	equ	0xFE9
  5788                           wreg	equ	0xFE8
  5789                           indf1	equ	0xFE7
  5790                           fsr1h	equ	0xFE2
  5791                           fsr1l	equ	0xFE1
  5792                           indf2	equ	0xFDF
  5793                           postinc2	equ	0xFDE
  5794                           postdec2	equ	0xFDD
  5795                           plusw2	equ	0xFDB
  5796                           fsr2h	equ	0xFDA
  5797                           fsr2l	equ	0xFD9
  5798                           status	equ	0xFD8
  5799                           
  5800 ;; *************** function _USBStdSetCfgHandler *****************
  5801 ;; Defined at:
  5802 ;;		line 1986 in file "CDCLib/usb_device.c"
  5803 ;; Parameters:    Size  Location     Type
  5804 ;;		None
  5805 ;; Auto vars:     Size  Location     Type
  5806 ;;  i               1   20[COMRAM] unsigned char 
  5807 ;; Return value:  Size  Location     Type
  5808 ;;		None               void
  5809 ;; Registers used:
  5810 ;;		wreg, fsr2l, fsr2h, status,2, status,0, prodl, prodh, cstack
  5811 ;; Tracked objects:
  5812 ;;		On entry : 0/0
  5813 ;;		On exit  : 0/0
  5814 ;;		Unchanged: 0/0
  5815 ;; Data sizes:     COMRAM   BANK0   BANK1   BANK2
  5816 ;;      Params:         0       0       0       0
  5817 ;;      Locals:         1       0       0       0
  5818 ;;      Temps:          0       0       0       0
  5819 ;;      Totals:         1       0       0       0
  5820 ;;Total ram usage:        1 bytes
  5821 ;; Hardware stack levels used:    1
  5822 ;; Hardware stack levels required when called:    5
  5823 ;; This function calls:
  5824 ;;		_USER_USB_CALLBACK_EVENT_HANDLER
  5825 ;;		i2_memset
  5826 ;; This function is called by:
  5827 ;;		_USBCheckStdRequest
  5828 ;; This function uses a non-reentrant model
  5829 ;;
  5830                           
  5831                           	psect	text29
  5832  0010D2                     __ptext29:
  5833                           	opt stack 0
  5834  0010D2                     _USBStdSetCfgHandler:
  5835                           	opt stack 17
  5836                           
  5837                           ;usb_device.c: 1988: uint8_t i;
  5838                           ;usb_device.c: 1991: inPipes[0].info.bits.busy = 1;
  5839                           
  5840                           ;incstack = 0
  5841  0010D2  8E0C               	bsf	_inPipes+3,7,c	;volatile
  5842                           
  5843                           ;usb_device.c: 1994: memset((void*)&UEP1,0x00,(2));;
  5844  0010D4  0E54               	movlw	84
  5845  0010D6  6E2B               	movwf	i2memset@p1,c
  5846  0010D8  0E0F               	movlw	15
  5847  0010DA  6E2C               	movwf	i2memset@p1+1,c
  5848  0010DC  0E00               	movlw	0
  5849  0010DE  6E2E               	movwf	i2memset@c+1,c
  5850  0010E0  0E00               	movlw	0
  5851  0010E2  6E2D               	movwf	i2memset@c,c
  5852  0010E4  0E00               	movlw	0
  5853  0010E6  6E30               	movwf	i2memset@n+1,c
  5854  0010E8  0E02               	movlw	2
  5855  0010EA  6E2F               	movwf	i2memset@n,c
  5856  0010EC  ECAB  F00F         	call	i2_memset	;wreg free
  5857                           
  5858                           ;usb_device.c: 1997: memset((void*)&BDT[0], 0x00, sizeof(BDT));
  5859  0010F0  0E00               	movlw	0
  5860  0010F2  6E2B               	movwf	i2memset@p1,c
  5861  0010F4  0E02               	movlw	2
  5862  0010F6  6E2C               	movwf	i2memset@p1+1,c
  5863  0010F8  0E00               	movlw	0
  5864  0010FA  6E2E               	movwf	i2memset@c+1,c
  5865  0010FC  0E00               	movlw	0
  5866  0010FE  6E2D               	movwf	i2memset@c,c
  5867  001100  0E00               	movlw	0
  5868  001102  6E30               	movwf	i2memset@n+1,c
  5869  001104  0E30               	movlw	48
  5870  001106  6E2F               	movwf	i2memset@n,c
  5871  001108  ECAB  F00F         	call	i2_memset	;wreg free
  5872                           
  5873                           ;usb_device.c: 2000: UCONbits.PPBRST = 1;
  5874  00110C  8C64               	bsf	3940,6,c	;volatile
  5875                           
  5876                           ;usb_device.c: 2005: for(i = 0; i < (uint8_t)(2+1u); i++)
  5877  00110E  0E00               	movlw	0
  5878  001110  6E3F               	movwf	USBStdSetCfgHandler@i,c
  5879  001112                     i2l3022:
  5880  001112  0E02               	movlw	2
  5881  001114  643F               	cpfsgt	USBStdSetCfgHandler@i,c
  5882  001116  D001               	goto	i2l3026
  5883  001118  D016               	goto	i2l3032
  5884  00111A                     i2l3026:
  5885                           
  5886                           ;usb_device.c: 2006: {
  5887                           ;usb_device.c: 2007: ep_data_in[i].Val = 0u;
  5888  00111A  503F               	movf	USBStdSetCfgHandler@i,w,c
  5889  00111C  0D01               	mullw	1
  5890  00111E  0ED8               	movlw	low _ep_data_in
  5891  001120  24F3               	addwf	prodl,w,c
  5892  001122  6ED9               	movwf	fsr2l,c
  5893  001124  0E00               	movlw	high _ep_data_in
  5894  001126  20F4               	addwfc	prodh,w,c
  5895  001128  6EDA               	movwf	fsr2h,c
  5896  00112A  0E00               	movlw	0
  5897  00112C  6EDF               	movwf	indf2,c
  5898                           
  5899                           ;usb_device.c: 2008: ep_data_out[i].Val = 0u;
  5900  00112E  503F               	movf	USBStdSetCfgHandler@i,w,c
  5901  001130  0D01               	mullw	1
  5902  001132  0EDB               	movlw	low _ep_data_out
  5903  001134  24F3               	addwf	prodl,w,c
  5904  001136  6ED9               	movwf	fsr2l,c
  5905  001138  0E00               	movlw	high _ep_data_out
  5906  00113A  20F4               	addwfc	prodh,w,c
  5907  00113C  6EDA               	movwf	fsr2h,c
  5908  00113E  0E00               	movlw	0
  5909  001140  6EDF               	movwf	indf2,c
  5910  001142  2A3F               	incf	USBStdSetCfgHandler@i,f,c
  5911  001144  D7E6               	goto	i2l3022
  5912  001146                     i2l3032:
  5913                           
  5914                           ;usb_device.c: 2009: }
  5915                           ;usb_device.c: 2012: memset((void*)&USBAlternateInterface,0x00,2);
  5916  001146  0EFC               	movlw	low _USBAlternateInterface
  5917  001148  6E2B               	movwf	i2memset@p1,c
  5918  00114A  0E00               	movlw	high _USBAlternateInterface
  5919  00114C  6E2C               	movwf	i2memset@p1+1,c
  5920  00114E  0E00               	movlw	0
  5921  001150  6E2E               	movwf	i2memset@c+1,c
  5922  001152  0E00               	movlw	0
  5923  001154  6E2D               	movwf	i2memset@c,c
  5924  001156  0E00               	movlw	0
  5925  001158  6E30               	movwf	i2memset@n+1,c
  5926  00115A  0E02               	movlw	2
  5927  00115C  6E2F               	movwf	i2memset@n,c
  5928  00115E  ECAB  F00F         	call	i2_memset	;wreg free
  5929                           
  5930                           ;usb_device.c: 2015: UCONbits.PPBRST = 0;
  5931  001162  9C64               	bcf	3940,6,c	;volatile
  5932                           
  5933                           ;usb_device.c: 2017: pBDTEntryIn[0] = (volatile BDT_ENTRY*)&BDT[2];
  5934  001164  0E08               	movlw	8
  5935  001166  6E0F               	movwf	_pBDTEntryIn,c
  5936  001168  0E02               	movlw	2
  5937  00116A  6E10               	movwf	_pBDTEntryIn+1,c
  5938                           
  5939                           ;usb_device.c: 2020: pBDTEntryEP0OutCurrent = (volatile BDT_ENTRY*)&BDT[0];
  5940  00116C  0E00               	movlw	0
  5941  00116E  6E17               	movwf	_pBDTEntryEP0OutCurrent,c
  5942  001170  0E02               	movlw	2
  5943  001172  6E18               	movwf	_pBDTEntryEP0OutCurrent+1,c
  5944                           
  5945                           ;usb_device.c: 2021: pBDTEntryEP0OutNext = pBDTEntryEP0OutCurrent;
  5946  001174  C017  F019         	movff	_pBDTEntryEP0OutCurrent,_pBDTEntryEP0OutNext
  5947  001178  C018  F01A         	movff	_pBDTEntryEP0OutCurrent+1,_pBDTEntryEP0OutNext+1
  5948                           
  5949                           ;usb_device.c: 2024: USBActiveConfiguration = SetupPkt.bConfigurationValue;
  5950  00117C  C232 F029          	movff	562,_USBActiveConfiguration	;volatile
  5951                           
  5952                           ;usb_device.c: 2027: if(USBActiveConfiguration == 0)
  5953  001180  5029               	movf	_USBActiveConfiguration,w,c	;volatile
  5954  001182  A4D8               	btfss	status,2,c
  5955  001184  D003               	goto	i2l3048
  5956                           
  5957                           ;usb_device.c: 2028: {
  5958                           ;usb_device.c: 2030: USBDeviceState = ADDRESS_STATE;
  5959  001186  0E10               	movlw	16
  5960  001188  6E1F               	movwf	_USBDeviceState,c	;volatile
  5961                           
  5962                           ;usb_device.c: 2031: }
  5963  00118A  0012               	return	
  5964  00118C                     i2l3048:
  5965                           
  5966                           ;usb_device.c: 2032: else
  5967                           ;usb_device.c: 2033: {
  5968                           ;usb_device.c: 2035: USER_USB_CALLBACK_EVENT_HANDLER(EVENT_CONFIGURED,(void*)&USBActiveC
      +                          onfiguration,1);
  5969  00118C  0E00               	movlw	0
  5970  00118E  6E38               	movwf	USER_USB_CALLBACK_EVENT_HANDLER@event+1,c
  5971  001190  0E01               	movlw	1
  5972  001192  6E37               	movwf	USER_USB_CALLBACK_EVENT_HANDLER@event,c
  5973  001194  0E29               	movlw	low _USBActiveConfiguration
  5974  001196  6E39               	movwf	USER_USB_CALLBACK_EVENT_HANDLER@pdata,c
  5975  001198  0E00               	movlw	high _USBActiveConfiguration
  5976  00119A  6E3A               	movwf	USER_USB_CALLBACK_EVENT_HANDLER@pdata+1,c
  5977  00119C  0E00               	movlw	0
  5978  00119E  6E3C               	movwf	USER_USB_CALLBACK_EVENT_HANDLER@size+1,c
  5979  0011A0  0E01               	movlw	1
  5980  0011A2  6E3B               	movwf	USER_USB_CALLBACK_EVENT_HANDLER@size,c
  5981  0011A4  ECD6  F00D         	call	_USER_USB_CALLBACK_EVENT_HANDLER	;wreg free
  5982                           
  5983                           ;usb_device.c: 2040: USBDeviceState = CONFIGURED_STATE;
  5984  0011A8  0E20               	movlw	32
  5985  0011AA  6E1F               	movwf	_USBDeviceState,c	;volatile
  5986  0011AC  0012               	return	
  5987  0011AE                     __end_of_USBStdSetCfgHandler:
  5988                           	opt stack 0
  5989                           pclatu	equ	0xFFB
  5990                           pclath	equ	0xFFA
  5991                           tblptru	equ	0xFF8
  5992                           tblptrh	equ	0xFF7
  5993                           tblptrl	equ	0xFF6
  5994                           tablat	equ	0xFF5
  5995                           prodh	equ	0xFF4
  5996                           prodl	equ	0xFF3
  5997                           intcon	equ	0xFF2
  5998                           postinc0	equ	0xFEE
  5999                           fsr0h	equ	0xFEA
  6000                           fsr0l	equ	0xFE9
  6001                           wreg	equ	0xFE8
  6002                           indf1	equ	0xFE7
  6003                           fsr1h	equ	0xFE2
  6004                           fsr1l	equ	0xFE1
  6005                           indf2	equ	0xFDF
  6006                           postinc2	equ	0xFDE
  6007                           postdec2	equ	0xFDD
  6008                           plusw2	equ	0xFDB
  6009                           fsr2h	equ	0xFDA
  6010                           fsr2l	equ	0xFD9
  6011                           status	equ	0xFD8
  6012                           
  6013 ;; *************** function i2_memset *****************
  6014 ;; Defined at:
  6015 ;;		line 8 in file "C:\Program Files (x86)\Microchip\xc8\v1.35\sources\common\memset.c"
  6016 ;; Parameters:    Size  Location     Type
  6017 ;;  p1              2    0[COMRAM] PTR void 
  6018 ;;		 -> USBAlternateInterface(2), BDT(48), UEP1(1), 
  6019 ;;  c               2    2[COMRAM] int 
  6020 ;;  n               2    4[COMRAM] unsigned int 
  6021 ;; Auto vars:     Size  Location     Type
  6022 ;;  memset          2    6[COMRAM] PTR unsigned char 
  6023 ;;		 -> USBAlternateInterface(2), BDT(48), UEP1(1), 
  6024 ;; Return value:  Size  Location     Type
  6025 ;;                  2    0[COMRAM] PTR void 
  6026 ;; Registers used:
  6027 ;;		wreg, fsr2l, fsr2h, status,2, status,0
  6028 ;; Tracked objects:
  6029 ;;		On entry : 0/0
  6030 ;;		On exit  : 0/0
  6031 ;;		Unchanged: 0/0
  6032 ;; Data sizes:     COMRAM   BANK0   BANK1   BANK2
  6033 ;;      Params:         6       0       0       0
  6034 ;;      Locals:         2       0       0       0
  6035 ;;      Temps:          0       0       0       0
  6036 ;;      Totals:         8       0       0       0
  6037 ;;Total ram usage:        8 bytes
  6038 ;; Hardware stack levels used:    1
  6039 ;; This function calls:
  6040 ;;		Nothing
  6041 ;; This function is called by:
  6042 ;;		_USBStdSetCfgHandler
  6043 ;;		i2_USBDeviceInit
  6044 ;; This function uses a non-reentrant model
  6045 ;;
  6046                           
  6047                           	psect	text30
  6048  001F56                     __ptext30:
  6049                           	opt stack 0
  6050  001F56                     i2_memset:
  6051                           	opt stack 24
  6052                           
  6053                           ;incstack = 0
  6054  001F56  C02B  F031         	movff	i2memset@p1,i2memset@p
  6055  001F5A  C02C  F032         	movff	i2memset@p1+1,i2memset@p+1
  6056  001F5E  D008               	goto	i2l2956
  6057  001F60                     i2l2952:
  6058  001F60  C031  FFD9         	movff	i2memset@p,fsr2l
  6059  001F64  C032  FFDA         	movff	i2memset@p+1,fsr2h
  6060  001F68  C02D  FFDF         	movff	i2memset@c,indf2
  6061  001F6C  4A31               	infsnz	i2memset@p,f,c
  6062  001F6E  2A32               	incf	i2memset@p+1,f,c
  6063  001F70                     i2l2956:
  6064  001F70  062F               	decf	i2memset@n,f,c
  6065  001F72  A0D8               	btfss	status,0,c
  6066  001F74  0630               	decf	i2memset@n+1,f,c
  6067  001F76  282F               	incf	i2memset@n,w,c
  6068  001F78  E1F3               	bnz	i2l2952
  6069  001F7A  2830               	incf	i2memset@n+1,w,c
  6070  001F7C  B4D8               	btfsc	status,2,c
  6071  001F7E  0012               	return	
  6072  001F80  D7EF               	goto	i2l2952
  6073  001F82                     __end_ofi2_memset:
  6074                           	opt stack 0
  6075                           pclatu	equ	0xFFB
  6076                           pclath	equ	0xFFA
  6077                           tblptru	equ	0xFF8
  6078                           tblptrh	equ	0xFF7
  6079                           tblptrl	equ	0xFF6
  6080                           tablat	equ	0xFF5
  6081                           prodh	equ	0xFF4
  6082                           prodl	equ	0xFF3
  6083                           intcon	equ	0xFF2
  6084                           postinc0	equ	0xFEE
  6085                           fsr0h	equ	0xFEA
  6086                           fsr0l	equ	0xFE9
  6087                           wreg	equ	0xFE8
  6088                           indf1	equ	0xFE7
  6089                           fsr1h	equ	0xFE2
  6090                           fsr1l	equ	0xFE1
  6091                           indf2	equ	0xFDF
  6092                           postinc2	equ	0xFDE
  6093                           postdec2	equ	0xFDD
  6094                           plusw2	equ	0xFDB
  6095                           fsr2h	equ	0xFDA
  6096                           fsr2l	equ	0xFD9
  6097                           status	equ	0xFD8
  6098                           
  6099 ;; *************** function _USBStdGetStatusHandler *****************
  6100 ;; Defined at:
  6101 ;;		line 2147 in file "CDCLib/usb_device.c"
  6102 ;; Parameters:    Size  Location     Type
  6103 ;;		None
  6104 ;; Auto vars:     Size  Location     Type
  6105 ;;  p               2    1[COMRAM] PTR struct __BDT
  6106 ;;		 -> NULL(0), BDT(48), 
  6107 ;; Return value:  Size  Location     Type
  6108 ;;		None               void
  6109 ;; Registers used:
  6110 ;;		wreg, fsr2l, fsr2h, status,2, status,0, prodl, prodh
  6111 ;; Tracked objects:
  6112 ;;		On entry : 0/0
  6113 ;;		On exit  : 0/0
  6114 ;;		Unchanged: 0/0
  6115 ;; Data sizes:     COMRAM   BANK0   BANK1   BANK2
  6116 ;;      Params:         0       0       0       0
  6117 ;;      Locals:         2       0       0       0
  6118 ;;      Temps:          1       0       0       0
  6119 ;;      Totals:         3       0       0       0
  6120 ;;Total ram usage:        3 bytes
  6121 ;; Hardware stack levels used:    1
  6122 ;; This function calls:
  6123 ;;		Nothing
  6124 ;; This function is called by:
  6125 ;;		_USBCheckStdRequest
  6126 ;; This function uses a non-reentrant model
  6127 ;;
  6128                           
  6129                           	psect	text31
  6130  001710                     __ptext31:
  6131                           	opt stack 0
  6132  001710                     _USBStdGetStatusHandler:
  6133                           	opt stack 22
  6134                           
  6135                           ;usb_device.c: 2149: CtrlTrfData[0] = 0;
  6136                           
  6137                           ;incstack = 0
  6138  001710  0E00               	movlw	0
  6139  001712  0102               	movlb	2	; () banked
  6140  001714  6F38               	movwf	56,b	;volatile
  6141                           
  6142                           ;usb_device.c: 2150: CtrlTrfData[1] = 0;
  6143  001716  0E00               	movlw	0
  6144  001718  0102               	movlb	2	; () banked
  6145  00171A  6F39               	movwf	57,b	;volatile
  6146                           
  6147                           ;usb_device.c: 2152: switch(SetupPkt.Recipient)
  6148  00171C  D038               	goto	i2l3104
  6149  00171E                     i2l315:
  6150                           
  6151                           ; BSR set to: 2
  6152                           ;usb_device.c: 2155: inPipes[0].info.bits.busy = 1;
  6153  00171E  8E0C               	bsf	_inPipes+3,7,c	;volatile
  6154                           
  6155                           ; BSR set to: 2
  6156                           ;usb_device.c: 2163: }
  6157                           ;usb_device.c: 2165: if(RemoteWakeup == 1)
  6158                           
  6159                           ; BSR set to: 2
  6160                           
  6161                           ; BSR set to: 2
  6162                           ;usb_device.c: 2161: {
  6163                           ;usb_device.c: 2162: CtrlTrfData[0]|=0x01;
  6164                           
  6165                           ;usb_device.c: 2160: if(0 == 1)
  6166  001720  041C               	decf	_RemoteWakeup,w,c	;volatile
  6167  001722  A4D8               	btfss	status,2,c
  6168  001724  D040               	goto	i2l318
  6169                           
  6170                           ; BSR set to: 2
  6171                           ;usb_device.c: 2166: {
  6172                           ;usb_device.c: 2167: CtrlTrfData[0]|=0x02;
  6173  001726  0102               	movlb	2	; () banked
  6174  001728  8338               	bsf	56,1,b	;volatile
  6175                           
  6176                           ; BSR set to: 2
  6177                           ;usb_device.c: 2168: }
  6178                           ;usb_device.c: 2169: break;
  6179  00172A  D03D               	goto	i2l318
  6180  00172C                     i2l319:
  6181                           
  6182                           ; BSR set to: 2
  6183                           ;usb_device.c: 2171: inPipes[0].info.bits.busy = 1;
  6184  00172C  8E0C               	bsf	_inPipes+3,7,c	;volatile
  6185                           
  6186                           ;usb_device.c: 2172: break;
  6187  00172E  D03B               	goto	i2l318
  6188  001730                     i2l320:
  6189                           
  6190                           ; BSR set to: 2
  6191                           ;usb_device.c: 2174: inPipes[0].info.bits.busy = 1;
  6192  001730  8E0C               	bsf	_inPipes+3,7,c	;volatile
  6193                           
  6194                           ;usb_device.c: 2178: {
  6195                           ;usb_device.c: 2179: BDT_ENTRY *p;
  6196                           ;usb_device.c: 2181: if(SetupPkt.EPDir == 0)
  6197  001732  0102               	movlb	2	; () banked
  6198  001734  BF34               	btfsc	52,7,b	;volatile
  6199  001736  D00B               	goto	i2l3094
  6200                           
  6201                           ; BSR set to: 2
  6202                           ;usb_device.c: 2182: {
  6203                           ;usb_device.c: 2183: p = (BDT_ENTRY*)pBDTEntryOut[SetupPkt.EPNum];
  6204  001738  0102               	movlb	2	; () banked
  6205  00173A  5134               	movf	52,w,b	;volatile
  6206  00173C  0B0F               	andlw	15
  6207  00173E  6E2B               	movwf	??_USBStdGetStatusHandler& (0+255),c
  6208  001740  502B               	movf	??_USBStdGetStatusHandler,w,c
  6209  001742  0D02               	mullw	2
  6210  001744  0ECA               	movlw	low _pBDTEntryOut
  6211  001746  24F3               	addwf	prodl,w,c
  6212  001748  6ED9               	movwf	fsr2l,c
  6213  00174A  0E00               	movlw	high _pBDTEntryOut
  6214  00174C  D00A               	goto	L5
  6215  00174E                     i2l3094:
  6216                           
  6217                           ; BSR set to: 2
  6218                           ;usb_device.c: 2185: else
  6219                           ;usb_device.c: 2186: {
  6220                           ;usb_device.c: 2187: p = (BDT_ENTRY*)pBDTEntryIn[SetupPkt.EPNum];
  6221  00174E  0102               	movlb	2	; () banked
  6222  001750  5134               	movf	52,w,b	;volatile
  6223  001752  0B0F               	andlw	15
  6224  001754  6E2B               	movwf	??_USBStdGetStatusHandler& (0+255),c
  6225  001756  502B               	movf	??_USBStdGetStatusHandler,w,c
  6226  001758  0D02               	mullw	2
  6227  00175A  0E0F               	movlw	low _pBDTEntryIn
  6228  00175C  24F3               	addwf	prodl,w,c
  6229  00175E  6ED9               	movwf	fsr2l,c
  6230  001760  0E00               	movlw	high _pBDTEntryIn
  6231  001762                     L5:
  6232  001762  20F4               	addwfc	prodh,w,c
  6233  001764  6EDA               	movwf	fsr2h,c
  6234  001766  CFDE F02C          	movff	postinc2,USBStdGetStatusHandler@p
  6235  00176A  CFDD F02D          	movff	postdec2,USBStdGetStatusHandler@p+1
  6236                           
  6237                           ; BSR set to: 2
  6238                           ;usb_device.c: 2188: }
  6239                           ;usb_device.c: 2190: if((p->STAT.UOWN == 1) && (p->STAT.BSTALL == 1))
  6240                           
  6241                           ; BSR set to: 2
  6242  00176E  C02C  FFD9         	movff	USBStdGetStatusHandler@p,fsr2l
  6243  001772  C02D  FFDA         	movff	USBStdGetStatusHandler@p+1,fsr2h
  6244  001776  AEDF               	btfss	indf2,7,c
  6245  001778  D016               	goto	i2l318
  6246                           
  6247                           ; BSR set to: 2
  6248  00177A  C02C  FFD9         	movff	USBStdGetStatusHandler@p,fsr2l
  6249  00177E  C02D  FFDA         	movff	USBStdGetStatusHandler@p+1,fsr2h
  6250  001782  A4DF               	btfss	indf2,2,c
  6251  001784  D010               	goto	i2l318
  6252                           
  6253                           ; BSR set to: 2
  6254                           ;usb_device.c: 2191: CtrlTrfData[0]=0x01;
  6255  001786  0E01               	movlw	1
  6256  001788  0102               	movlb	2	; () banked
  6257  00178A  6F38               	movwf	56,b	;volatile
  6258                           
  6259                           ; BSR set to: 2
  6260                           ;usb_device.c: 2193: }
  6261                           ;usb_device.c: 2194: }
  6262                           
  6263                           ; BSR set to: 2
  6264                           ;usb_device.c: 2192: break;
  6265  00178C  D00C               	goto	i2l318
  6266  00178E                     i2l3104:
  6267                           
  6268                           ; BSR set to: 2
  6269  00178E  0102               	movlb	2	; () banked
  6270  001790  5130               	movf	48,w,b	;volatile
  6271  001792  0B1F               	andlw	31
  6272                           
  6273                           ; Switch size 1, requested type "space"
  6274                           ; Number of cases is 3, Range of values is 0 to 2
  6275                           ; switch strategies available:
  6276                           ; Name         Instructions Cycles
  6277                           ; simple_byte           10     6 (average)
  6278                           ;	Chosen strategy is simple_byte
  6279  001794  0A00               	xorlw	0	; case 0
  6280  001796  B4D8               	btfsc	status,2,c
  6281  001798  D7C2               	goto	i2l315
  6282  00179A  0A01               	xorlw	1	; case 1
  6283  00179C  B4D8               	btfsc	status,2,c
  6284  00179E  D7C6               	goto	i2l319
  6285  0017A0  0A03               	xorlw	3	; case 2
  6286  0017A2  B4D8               	btfsc	status,2,c
  6287  0017A4  D7C5               	goto	i2l320
  6288  0017A6                     i2l318:
  6289                           
  6290                           ; BSR set to: 2
  6291                           ;usb_device.c: 2196: if(inPipes[0].info.bits.busy == 1)
  6292  0017A6  AE0C               	btfss	_inPipes+3,7,c	;volatile
  6293  0017A8  0012               	return	
  6294                           
  6295                           ; BSR set to: 2
  6296                           ;usb_device.c: 2197: {
  6297                           ;usb_device.c: 2198: inPipes[0].pSrc.bRam = (uint8_t*)&CtrlTrfData;
  6298  0017AA  0E38               	movlw	56
  6299  0017AC  6E09               	movwf	_inPipes,c	;volatile
  6300  0017AE  0E02               	movlw	2
  6301  0017B0  6E0A               	movwf	_inPipes+1,c	;volatile
  6302                           
  6303                           ; BSR set to: 2
  6304                           ;usb_device.c: 2199: inPipes[0].info.bits.ctrl_trf_mem = 0x01;
  6305  0017B2  800C               	bsf	_inPipes+3,0,c	;volatile
  6306                           
  6307                           ; BSR set to: 2
  6308                           ;usb_device.c: 2200: inPipes[0].wCount.v[0] = 2;
  6309  0017B4  0E02               	movlw	2
  6310  0017B6  6E0D               	movwf	_inPipes+4,c	;volatile
  6311  0017B8  0012               	return	
  6312  0017BA                     __end_of_USBStdGetStatusHandler:
  6313                           	opt stack 0
  6314                           pclatu	equ	0xFFB
  6315                           pclath	equ	0xFFA
  6316                           tblptru	equ	0xFF8
  6317                           tblptrh	equ	0xFF7
  6318                           tblptrl	equ	0xFF6
  6319                           tablat	equ	0xFF5
  6320                           prodh	equ	0xFF4
  6321                           prodl	equ	0xFF3
  6322                           intcon	equ	0xFF2
  6323                           postinc0	equ	0xFEE
  6324                           fsr0h	equ	0xFEA
  6325                           fsr0l	equ	0xFE9
  6326                           wreg	equ	0xFE8
  6327                           indf1	equ	0xFE7
  6328                           fsr1h	equ	0xFE2
  6329                           fsr1l	equ	0xFE1
  6330                           indf2	equ	0xFDF
  6331                           postinc2	equ	0xFDE
  6332                           postdec2	equ	0xFDD
  6333                           plusw2	equ	0xFDB
  6334                           fsr2h	equ	0xFDA
  6335                           fsr2l	equ	0xFD9
  6336                           status	equ	0xFD8
  6337                           
  6338 ;; *************** function _USBStdGetDscHandler *****************
  6339 ;; Defined at:
  6340 ;;		line 2061 in file "CDCLib/usb_device.c"
  6341 ;; Parameters:    Size  Location     Type
  6342 ;;		None
  6343 ;; Auto vars:     Size  Location     Type
  6344 ;;		None
  6345 ;; Return value:  Size  Location     Type
  6346 ;;		None               void
  6347 ;; Registers used:
  6348 ;;		wreg, fsr1l, fsr1h, status,2, status,0, tblptrl, tblptrh, tblptru, prodl, prodh
  6349 ;; Tracked objects:
  6350 ;;		On entry : 0/0
  6351 ;;		On exit  : 0/0
  6352 ;;		Unchanged: 0/0
  6353 ;; Data sizes:     COMRAM   BANK0   BANK1   BANK2
  6354 ;;      Params:         0       0       0       0
  6355 ;;      Locals:         0       0       0       0
  6356 ;;      Temps:          2       0       0       0
  6357 ;;      Totals:         2       0       0       0
  6358 ;;Total ram usage:        2 bytes
  6359 ;; Hardware stack levels used:    1
  6360 ;; This function calls:
  6361 ;;		Nothing
  6362 ;; This function is called by:
  6363 ;;		_USBCheckStdRequest
  6364 ;; This function uses a non-reentrant model
  6365 ;;
  6366                           
  6367                           	psect	text32
  6368  000DB2                     __ptext32:
  6369                           	opt stack 0
  6370  000DB2                     _USBStdGetDscHandler:
  6371                           	opt stack 22
  6372                           
  6373                           ;usb_device.c: 2063: if(SetupPkt.bmRequestType == 0x80)
  6374                           
  6375                           ; BSR set to: 2
  6376                           ;incstack = 0
  6377  000DB2  0E80               	movlw	128
  6378  000DB4  0102               	movlb	2	; () banked
  6379  000DB6  1930               	xorwf	48,w,b	;volatile
  6380  000DB8  A4D8               	btfss	status,2,c
  6381  000DBA  0012               	return	
  6382                           
  6383                           ; BSR set to: 2
  6384                           ;usb_device.c: 2064: {
  6385                           ;usb_device.c: 2065: inPipes[0].info.Val = 0x00 | 0x80 | 0x40;
  6386  000DBC  0EC0               	movlw	192
  6387  000DBE  6E0C               	movwf	_inPipes+3,c	;volatile
  6388                           
  6389                           ;usb_device.c: 2067: switch(SetupPkt.bDescriptorType)
  6390  000DC0  D07C               	goto	i2l3082
  6391  000DC2                     i2l3056:
  6392                           
  6393                           ; BSR set to: 2
  6394                           ;usb_device.c: 2073: inPipes[0].pSrc.bRom = (const uint8_t*)&device_dsc;
  6395  000DC2  0EBE               	movlw	low _device_dsc
  6396  000DC4  6E09               	movwf	_inPipes,c	;volatile
  6397  000DC6  0E03               	movlw	high _device_dsc
  6398  000DC8  6E0A               	movwf	_inPipes+1,c	;volatile
  6399                           
  6400                           ; BSR set to: 2
  6401                           ;usb_device.c: 2075: inPipes[0].wCount.Val = sizeof(device_dsc);
  6402  000DCA  0E00               	movlw	0
  6403  000DCC  6E0E               	movwf	_inPipes+5,c	;volatile
  6404  000DCE  0E12               	movlw	18
  6405  000DD0  6E0D               	movwf	_inPipes+4,c	;volatile
  6406                           
  6407                           ;usb_device.c: 2076: break;
  6408  000DD2  0012               	return	
  6409  000DD4                     i2l3060:
  6410                           
  6411                           ; BSR set to: 2
  6412                           ;usb_device.c: 2081: if(SetupPkt.bDscIndex < 1)
  6413  000DD4  0102               	movlb	2	; () banked
  6414  000DD6  5132               	movf	50,w,b	;volatile
  6415  000DD8  A4D8               	btfss	status,2,c
  6416  000DDA  D03E               	goto	i2l3068
  6417                           
  6418                           ; BSR set to: 2
  6419                           ;usb_device.c: 2082: {
  6420                           ;usb_device.c: 2086: inPipes[0].pSrc.bRom = *(USB_CD_Ptr+SetupPkt.bDscIndex);
  6421  000DDC  0102               	movlb	2	; () banked
  6422  000DDE  5132               	movf	50,w,b	;volatile
  6423  000DE0  0D02               	mullw	2
  6424  000DE2  0E11               	movlw	low _USB_CD_Ptr
  6425  000DE4  24F3               	addwf	prodl,w,c
  6426  000DE6  6EF6               	movwf	tblptrl,c
  6427  000DE8  0E03               	movlw	high _USB_CD_Ptr
  6428  000DEA  20F4               	addwfc	prodh,w,c
  6429  000DEC  6EF7               	movwf	tblptrh,c
  6430  000DEE                     	if	0	;There are less than 3 active tblptr bytes
  6431  000DEE                     	endif
  6432  000DEE  0009               	tblrd		*+
  6433  000DF0  CFF5 F009          	movff	tablat,_inPipes	;volatile
  6434  000DF4  000A               	tblrd		*-
  6435  000DF6  CFF5 F00A          	movff	tablat,_inPipes+1	;volatile
  6436                           
  6437                           ; BSR set to: 2
  6438                           ;usb_device.c: 2092: inPipes[0].wCount.byte.LB = *(inPipes[0].pSrc.bRom+2);
  6439  000DFA  0E02               	movlw	2
  6440  000DFC  2409               	addwf	_inPipes,w,c	;volatile
  6441  000DFE  6E2B               	movwf	??_USBStdGetDscHandler& (0+255),c
  6442  000E00  0E00               	movlw	0
  6443  000E02  200A               	addwfc	_inPipes+1,w,c	;volatile
  6444  000E04  6E2C               	movwf	(??_USBStdGetDscHandler+1)& (0+255),c
  6445  000E06  C02B  FFF6         	movff	??_USBStdGetDscHandler,tblptrl
  6446  000E0A  C02C  FFF7         	movff	??_USBStdGetDscHandler+1,tblptrh
  6447  000E0E  6AF8               	clrf	tblptru,c
  6448  000E10  0E02               	movlw	(high __ramtop+-1)
  6449  000E12  64F7               	cpfsgt	tblptrh,c
  6450  000E14  D003               	bra	i2u212_47
  6451  000E16  0008               	tblrd		*
  6452  000E18  50F5               	movf	tablat,w,c
  6453  000E1A  D005               	bra	i2u212_40
  6454  000E1C                     i2u212_47:
  6455  000E1C  CFF6 FFE1          	movff	tblptrl,fsr1l
  6456  000E20  CFF7 FFE2          	movff	tblptrh,fsr1h
  6457  000E24  50E7               	movf	indf1,w,c
  6458  000E26                     i2u212_40:
  6459  000E26  6E0D               	movwf	_inPipes+4,c	;volatile
  6460                           
  6461                           ;usb_device.c: 2093: inPipes[0].wCount.byte.HB = *(inPipes[0].pSrc.bRom+3);
  6462  000E28  0E03               	movlw	3
  6463  000E2A  2409               	addwf	_inPipes,w,c	;volatile
  6464  000E2C  6E2B               	movwf	??_USBStdGetDscHandler& (0+255),c
  6465  000E2E  0E00               	movlw	0
  6466  000E30  200A               	addwfc	_inPipes+1,w,c	;volatile
  6467  000E32  6E2C               	movwf	(??_USBStdGetDscHandler+1)& (0+255),c
  6468  000E34  C02B  FFF6         	movff	??_USBStdGetDscHandler,tblptrl
  6469  000E38  C02C  FFF7         	movff	??_USBStdGetDscHandler+1,tblptrh
  6470  000E3C  6AF8               	clrf	tblptru,c
  6471  000E3E  0E02               	movlw	(high __ramtop+-1)
  6472  000E40  64F7               	cpfsgt	tblptrh,c
  6473  000E42  D003               	bra	i2u213_47
  6474  000E44  0008               	tblrd		*
  6475  000E46  50F5               	movf	tablat,w,c
  6476  000E48  D005               	bra	i2u213_40
  6477  000E4A                     i2u213_47:
  6478  000E4A  CFF6 FFE1          	movff	tblptrl,fsr1l
  6479  000E4E  CFF7 FFE2          	movff	tblptrh,fsr1h
  6480  000E52  50E7               	movf	indf1,w,c
  6481  000E54                     i2u213_40:
  6482  000E54  6E0E               	movwf	_inPipes+5,c	;volatile
  6483                           
  6484                           ;usb_device.c: 2094: }
  6485  000E56  0012               	return	
  6486  000E58                     i2l3068:
  6487                           
  6488                           ;usb_device.c: 2095: else
  6489                           ;usb_device.c: 2096: {
  6490                           ;usb_device.c: 2097: inPipes[0].info.Val = 0;
  6491  000E58  0E00               	movlw	0
  6492  000E5A  6E0C               	movwf	_inPipes+3,c	;volatile
  6493                           
  6494                           ;usb_device.c: 2098: }
  6495                           ;usb_device.c: 2099: break;
  6496  000E5C  0012               	return	
  6497  000E5E                     i2l3070:
  6498                           
  6499                           ;usb_device.c: 2104: if(SetupPkt.bDscIndex<3)
  6500  000E5E  0E03               	movlw	3
  6501  000E60  0102               	movlb	2	; () banked
  6502  000E62  6132               	cpfslt	50,b	;volatile
  6503  000E64  D024               	goto	i2l3076
  6504                           
  6505                           ; BSR set to: 2
  6506                           ;usb_device.c: 2105: {
  6507                           ;usb_device.c: 2107: inPipes[0].pSrc.bRom = *(USB_SD_Ptr+SetupPkt.bDscIndex);
  6508  000E66  0102               	movlb	2	; () banked
  6509  000E68  5132               	movf	50,w,b	;volatile
  6510  000E6A  0D02               	mullw	2
  6511  000E6C  0E0B               	movlw	low _USB_SD_Ptr
  6512  000E6E  24F3               	addwf	prodl,w,c
  6513  000E70  6EF6               	movwf	tblptrl,c
  6514  000E72  0E03               	movlw	high _USB_SD_Ptr
  6515  000E74  20F4               	addwfc	prodh,w,c
  6516  000E76  6EF7               	movwf	tblptrh,c
  6517  000E78                     	if	0	;There are less than 3 active tblptr bytes
  6518  000E78                     	endif
  6519  000E78  0009               	tblrd		*+
  6520  000E7A  CFF5 F009          	movff	tablat,_inPipes	;volatile
  6521  000E7E  000A               	tblrd		*-
  6522  000E80  CFF5 F00A          	movff	tablat,_inPipes+1	;volatile
  6523                           
  6524                           ; BSR set to: 2
  6525                           ;usb_device.c: 2109: inPipes[0].wCount.Val = *inPipes[0].pSrc.bRom;
  6526  000E84  C009  FFF6         	movff	_inPipes,tblptrl	;volatile
  6527  000E88  C00A  FFF7         	movff	_inPipes+1,tblptrh	;volatile
  6528  000E8C  6AF8               	clrf	tblptru,c
  6529  000E8E  0E02               	movlw	(high __ramtop+-1)
  6530  000E90  64F7               	cpfsgt	tblptrh,c
  6531  000E92  D003               	bra	i2u215_47
  6532  000E94  0008               	tblrd		*
  6533  000E96  50F5               	movf	tablat,w,c
  6534  000E98  D005               	bra	i2u215_40
  6535  000E9A                     i2u215_47:
  6536  000E9A  CFF6 FFE1          	movff	tblptrl,fsr1l
  6537  000E9E  CFF7 FFE2          	movff	tblptrh,fsr1h
  6538  000EA2  50E7               	movf	indf1,w,c
  6539  000EA4                     i2u215_40:
  6540  000EA4  6E2B               	movwf	??_USBStdGetDscHandler& (0+255),c
  6541  000EA6  502B               	movf	??_USBStdGetDscHandler,w,c
  6542  000EA8  6E0D               	movwf	_inPipes+4,c	;volatile
  6543  000EAA  6A0E               	clrf	_inPipes+5,c	;volatile
  6544                           
  6545                           ;usb_device.c: 2110: }
  6546  000EAC  0012               	return	
  6547  000EAE                     i2l3076:
  6548                           
  6549                           ;usb_device.c: 2120: else
  6550                           ;usb_device.c: 2121: {
  6551                           ;usb_device.c: 2122: inPipes[0].info.Val = 0;
  6552  000EAE  0E00               	movlw	0
  6553  000EB0  6E0C               	movwf	_inPipes+3,c	;volatile
  6554                           
  6555                           ;usb_device.c: 2123: }
  6556                           ;usb_device.c: 2124: break;
  6557  000EB2  0012               	return	
  6558  000EB4                     i2l3078:
  6559                           
  6560                           ;usb_device.c: 2126: inPipes[0].info.Val = 0;
  6561  000EB4  0E00               	movlw	0
  6562  000EB6  6E0C               	movwf	_inPipes+3,c	;volatile
  6563                           
  6564                           ;usb_device.c: 2128: }
  6565                           
  6566                           ;usb_device.c: 2127: break;
  6567  000EB8  0012               	return	
  6568  000EBA                     i2l3082:
  6569  000EBA  0102               	movlb	2	; () banked
  6570  000EBC  5133               	movf	51,w,b	;volatile
  6571                           
  6572                           ; Switch size 1, requested type "space"
  6573                           ; Number of cases is 3, Range of values is 1 to 3
  6574                           ; switch strategies available:
  6575                           ; Name         Instructions Cycles
  6576                           ; simple_byte           10     6 (average)
  6577                           ;	Chosen strategy is simple_byte
  6578  000EBE  0A01               	xorlw	1	; case 1
  6579  000EC0  B4D8               	btfsc	status,2,c
  6580  000EC2  D77F               	goto	i2l3056
  6581  000EC4  0A03               	xorlw	3	; case 2
  6582  000EC6  B4D8               	btfsc	status,2,c
  6583  000EC8  D785               	goto	i2l3060
  6584  000ECA  0A01               	xorlw	1	; case 3
  6585  000ECC  B4D8               	btfsc	status,2,c
  6586  000ECE  D7C7               	goto	i2l3070
  6587  000ED0  D7F1               	goto	i2l3078
  6588  000ED2                     __end_of_USBStdGetDscHandler:
  6589                           	opt stack 0
  6590                           pclatu	equ	0xFFB
  6591                           pclath	equ	0xFFA
  6592                           tblptru	equ	0xFF8
  6593                           tblptrh	equ	0xFF7
  6594                           tblptrl	equ	0xFF6
  6595                           tablat	equ	0xFF5
  6596                           prodh	equ	0xFF4
  6597                           prodl	equ	0xFF3
  6598                           intcon	equ	0xFF2
  6599                           postinc0	equ	0xFEE
  6600                           fsr0h	equ	0xFEA
  6601                           fsr0l	equ	0xFE9
  6602                           wreg	equ	0xFE8
  6603                           indf1	equ	0xFE7
  6604                           fsr1h	equ	0xFE2
  6605                           fsr1l	equ	0xFE1
  6606                           indf2	equ	0xFDF
  6607                           postinc2	equ	0xFDE
  6608                           postdec2	equ	0xFDD
  6609                           plusw2	equ	0xFDB
  6610                           fsr2h	equ	0xFDA
  6611                           fsr2l	equ	0xFD9
  6612                           status	equ	0xFD8
  6613                           
  6614 ;; *************** function _USBStdFeatureReqHandler *****************
  6615 ;; Defined at:
  6616 ;;		line 2771 in file "CDCLib/usb_device.c"
  6617 ;; Parameters:    Size  Location     Type
  6618 ;;		None
  6619 ;; Auto vars:     Size  Location     Type
  6620 ;;  p               2   24[COMRAM] PTR struct __BDT
  6621 ;;		 -> NULL(0), BDT(48), 
  6622 ;;  pUEP            2   21[COMRAM] PTR unsigned char 
  6623 ;;		 -> UEP0(1), 
  6624 ;;  current_ep_d    1   23[COMRAM] struct .
  6625 ;; Return value:  Size  Location     Type
  6626 ;;		None               void
  6627 ;; Registers used:
  6628 ;;		wreg, fsr2l, fsr2h, status,2, status,0, prodl, prodh, cstack
  6629 ;; Tracked objects:
  6630 ;;		On entry : 0/0
  6631 ;;		On exit  : 0/0
  6632 ;;		Unchanged: 0/0
  6633 ;; Data sizes:     COMRAM   BANK0   BANK1   BANK2
  6634 ;;      Params:         0       0       0       0
  6635 ;;      Locals:         5       0       0       0
  6636 ;;      Temps:          1       0       0       0
  6637 ;;      Totals:         6       0       0       0
  6638 ;;Total ram usage:        6 bytes
  6639 ;; Hardware stack levels used:    1
  6640 ;; Hardware stack levels required when called:    5
  6641 ;; This function calls:
  6642 ;;		_USER_USB_CALLBACK_EVENT_HANDLER
  6643 ;; This function is called by:
  6644 ;;		_USBCheckStdRequest
  6645 ;; This function uses a non-reentrant model
  6646 ;;
  6647                           
  6648                           	psect	text33
  6649  0003E4                     __ptext33:
  6650                           	opt stack 0
  6651  0003E4                     _USBStdFeatureReqHandler:
  6652                           	opt stack 17
  6653                           
  6654                           ;usb_device.c: 2773: BDT_ENTRY *p;
  6655                           ;usb_device.c: 2774: EP_STATUS current_ep_data;
  6656                           ;usb_device.c: 2778: unsigned char* pUEP;
  6657                           ;usb_device.c: 2816: if((SetupPkt.bFeature == 1)&&
  6658                           ;usb_device.c: 2817: (SetupPkt.Recipient == (0x00)))
  6659                           
  6660                           ;incstack = 0
  6661  0003E4  0102               	movlb	2	; () banked
  6662  0003E6  0532               	decf	50,w,b	;volatile
  6663  0003E8  A4D8               	btfss	status,2,c
  6664  0003EA  D010               	goto	i2l392
  6665                           
  6666                           ; BSR set to: 2
  6667  0003EC  0102               	movlb	2	; () banked
  6668  0003EE  5130               	movf	48,w,b	;volatile
  6669  0003F0  0B1F               	andlw	31
  6670  0003F2  0900               	iorlw	0
  6671  0003F4  A4D8               	btfss	status,2,c
  6672  0003F6  D00A               	goto	i2l392
  6673                           
  6674                           ; BSR set to: 2
  6675                           ;usb_device.c: 2818: {
  6676                           ;usb_device.c: 2819: inPipes[0].info.bits.busy = 1;
  6677  0003F8  8E0C               	bsf	_inPipes+3,7,c	;volatile
  6678                           
  6679                           ; BSR set to: 2
  6680                           ;usb_device.c: 2820: if(SetupPkt.bRequest == 3)
  6681  0003FA  0E03               	movlw	3
  6682  0003FC  0102               	movlb	2	; () banked
  6683  0003FE  1931               	xorwf	49,w,b	;volatile
  6684  000400  A4D8               	btfss	status,2,c
  6685  000402  D002               	goto	i2l3122
  6686                           
  6687                           ; BSR set to: 2
  6688                           ;usb_device.c: 2821: RemoteWakeup = 1;
  6689  000404  0E01               	movlw	1
  6690  000406  D001               	goto	L6
  6691  000408                     i2l3122:
  6692                           
  6693                           ; BSR set to: 2
  6694                           ;usb_device.c: 2822: else
  6695                           ;usb_device.c: 2823: RemoteWakeup = 0;
  6696  000408  0E00               	movlw	0
  6697  00040A                     L6:
  6698  00040A  6E1C               	movwf	_RemoteWakeup,c	;volatile
  6699  00040C                     i2l392:
  6700                           
  6701                           ; BSR set to: 2
  6702                           ;usb_device.c: 2824: }
  6703                           ;usb_device.c: 2827: if((SetupPkt.bFeature == 0)&&
  6704                           ;usb_device.c: 2828: (SetupPkt.Recipient == (0x02))&&
  6705                           ;usb_device.c: 2829: (SetupPkt.EPNum != 0) && (SetupPkt.EPNum <= 2)&&
  6706                           ;usb_device.c: 2830: (USBDeviceState == CONFIGURED_STATE))
  6707  00040C  0102               	movlb	2	; () banked
  6708  00040E  5132               	movf	50,w,b	;volatile
  6709  000410  A4D8               	btfss	status,2,c
  6710  000412  0012               	return	
  6711                           
  6712                           ; BSR set to: 2
  6713  000414  0102               	movlb	2	; () banked
  6714  000416  5130               	movf	48,w,b	;volatile
  6715  000418  0B1F               	andlw	31
  6716  00041A  0A02               	xorlw	2
  6717  00041C  A4D8               	btfss	status,2,c
  6718  00041E  0012               	return	
  6719                           
  6720                           ; BSR set to: 2
  6721  000420  0102               	movlb	2	; () banked
  6722  000422  5134               	movf	52,w,b	;volatile
  6723  000424  0B0F               	andlw	15
  6724  000426  0900               	iorlw	0
  6725  000428  B4D8               	btfsc	status,2,c
  6726  00042A  0012               	return	
  6727                           
  6728                           ; BSR set to: 2
  6729  00042C  0102               	movlb	2	; () banked
  6730  00042E  5134               	movf	52,w,b	;volatile
  6731  000430  0B0F               	andlw	15
  6732  000432  6E3F               	movwf	??_USBStdFeatureReqHandler& (0+255),c
  6733  000434  0E03               	movlw	3
  6734  000436  603F               	cpfslt	??_USBStdFeatureReqHandler,c
  6735  000438  0012               	return	
  6736                           
  6737                           ; BSR set to: 2
  6738  00043A  0E20               	movlw	32
  6739  00043C  181F               	xorwf	_USBDeviceState,w,c	;volatile
  6740  00043E  A4D8               	btfss	status,2,c
  6741  000440  0012               	return	
  6742                           
  6743                           ; BSR set to: 2
  6744                           ;usb_device.c: 2831: {
  6745                           ;usb_device.c: 2834: inPipes[0].info.bits.busy = 1;
  6746  000442  8E0C               	bsf	_inPipes+3,7,c	;volatile
  6747                           
  6748                           ;usb_device.c: 2837: if(SetupPkt.EPDir == 0)
  6749  000444  0102               	movlb	2	; () banked
  6750  000446  BF34               	btfsc	52,7,b	;volatile
  6751  000448  D01B               	goto	i2l3136
  6752                           
  6753                           ; BSR set to: 2
  6754                           ;usb_device.c: 2838: {
  6755                           ;usb_device.c: 2839: p = (BDT_ENTRY*)pBDTEntryOut[SetupPkt.EPNum];
  6756  00044A  0102               	movlb	2	; () banked
  6757  00044C  5134               	movf	52,w,b	;volatile
  6758  00044E  0B0F               	andlw	15
  6759  000450  6E3F               	movwf	??_USBStdFeatureReqHandler& (0+255),c
  6760  000452  503F               	movf	??_USBStdFeatureReqHandler,w,c
  6761  000454  0D02               	mullw	2
  6762  000456  0ECA               	movlw	low _pBDTEntryOut
  6763  000458  24F3               	addwf	prodl,w,c
  6764  00045A  6ED9               	movwf	fsr2l,c
  6765  00045C  0E00               	movlw	high _pBDTEntryOut
  6766  00045E  20F4               	addwfc	prodh,w,c
  6767  000460  6EDA               	movwf	fsr2h,c
  6768  000462  CFDE F043          	movff	postinc2,USBStdFeatureReqHandler@p
  6769  000466  CFDD F044          	movff	postdec2,USBStdFeatureReqHandler@p+1
  6770                           
  6771                           ;usb_device.c: 2840: current_ep_data.Val = ep_data_out[SetupPkt.EPNum].Val;
  6772  00046A  0102               	movlb	2	; () banked
  6773  00046C  5134               	movf	52,w,b	;volatile
  6774  00046E  0B0F               	andlw	15
  6775  000470  6E3F               	movwf	??_USBStdFeatureReqHandler& (0+255),c
  6776  000472  503F               	movf	??_USBStdFeatureReqHandler,w,c
  6777  000474  0D01               	mullw	1
  6778  000476  0EDB               	movlw	low _ep_data_out
  6779  000478  24F3               	addwf	prodl,w,c
  6780  00047A  6ED9               	movwf	fsr2l,c
  6781  00047C  0E00               	movlw	high _ep_data_out
  6782  00047E  D01A               	goto	L7
  6783  000480                     i2l3136:
  6784                           
  6785                           ; BSR set to: 2
  6786                           ;usb_device.c: 2842: else
  6787                           ;usb_device.c: 2843: {
  6788                           ;usb_device.c: 2844: p = (BDT_ENTRY*)pBDTEntryIn[SetupPkt.EPNum];
  6789  000480  0102               	movlb	2	; () banked
  6790  000482  5134               	movf	52,w,b	;volatile
  6791  000484  0B0F               	andlw	15
  6792  000486  6E3F               	movwf	??_USBStdFeatureReqHandler& (0+255),c
  6793  000488  503F               	movf	??_USBStdFeatureReqHandler,w,c
  6794  00048A  0D02               	mullw	2
  6795  00048C  0E0F               	movlw	low _pBDTEntryIn
  6796  00048E  24F3               	addwf	prodl,w,c
  6797  000490  6ED9               	movwf	fsr2l,c
  6798  000492  0E00               	movlw	high _pBDTEntryIn
  6799  000494  20F4               	addwfc	prodh,w,c
  6800  000496  6EDA               	movwf	fsr2h,c
  6801  000498  CFDE F043          	movff	postinc2,USBStdFeatureReqHandler@p
  6802  00049C  CFDD F044          	movff	postdec2,USBStdFeatureReqHandler@p+1
  6803                           
  6804                           ;usb_device.c: 2845: current_ep_data.Val = ep_data_in[SetupPkt.EPNum].Val;
  6805  0004A0  0102               	movlb	2	; () banked
  6806  0004A2  5134               	movf	52,w,b	;volatile
  6807  0004A4  0B0F               	andlw	15
  6808  0004A6  6E3F               	movwf	??_USBStdFeatureReqHandler& (0+255),c
  6809  0004A8  503F               	movf	??_USBStdFeatureReqHandler,w,c
  6810  0004AA  0D01               	mullw	1
  6811  0004AC  0ED8               	movlw	low _ep_data_in
  6812  0004AE  24F3               	addwf	prodl,w,c
  6813  0004B0  6ED9               	movwf	fsr2l,c
  6814  0004B2  0E00               	movlw	high _ep_data_in
  6815  0004B4                     L7:
  6816  0004B4  20F4               	addwfc	prodh,w,c
  6817  0004B6  6EDA               	movwf	fsr2h,c
  6818  0004B8  50DF               	movf	indf2,w,c
  6819  0004BA  6E42               	movwf	USBStdFeatureReqHandler@current_ep_data,c
  6820                           
  6821                           ; BSR set to: 2
  6822                           ;usb_device.c: 2846: }
  6823                           ;usb_device.c: 2852: if(current_ep_data.bits.ping_pong_state == 0)
  6824                           
  6825                           ; BSR set to: 2
  6826  0004BC  B042               	btfsc	USBStdFeatureReqHandler@current_ep_data,0,c
  6827  0004BE  D002               	goto	i2l3142
  6828                           
  6829                           ; BSR set to: 2
  6830                           ;usb_device.c: 2853: {
  6831                           ;usb_device.c: 2854: {((uint8_t_VAL*)&p)->Val &= ~0x0004;};
  6832  0004C0  9443               	bcf	USBStdFeatureReqHandler@p,2,c
  6833                           
  6834                           ;usb_device.c: 2855: }
  6835  0004C2  D001               	goto	i2l3144
  6836  0004C4                     i2l3142:
  6837                           
  6838                           ; BSR set to: 2
  6839                           ;usb_device.c: 2856: else
  6840                           ;usb_device.c: 2857: {
  6841                           ;usb_device.c: 2858: {((uint8_t_VAL*)&p)->Val |= 0x0004;};
  6842  0004C4  8443               	bsf	USBStdFeatureReqHandler@p,2,c
  6843  0004C6                     i2l3144:
  6844                           
  6845                           ; BSR set to: 2
  6846                           ;usb_device.c: 2859: }
  6847                           ;usb_device.c: 2864: if(SetupPkt.EPDir == 0)
  6848  0004C6  0102               	movlb	2	; () banked
  6849  0004C8  BF34               	btfsc	52,7,b	;volatile
  6850  0004CA  D00B               	goto	i2l3148
  6851                           
  6852                           ; BSR set to: 2
  6853                           ;usb_device.c: 2865: {
  6854                           ;usb_device.c: 2866: pBDTEntryOut[SetupPkt.EPNum] = (volatile BDT_ENTRY *)p;
  6855  0004CC  0102               	movlb	2	; () banked
  6856  0004CE  5134               	movf	52,w,b	;volatile
  6857  0004D0  0B0F               	andlw	15
  6858  0004D2  6E3F               	movwf	??_USBStdFeatureReqHandler& (0+255),c
  6859  0004D4  503F               	movf	??_USBStdFeatureReqHandler,w,c
  6860  0004D6  0D02               	mullw	2
  6861  0004D8  0ECA               	movlw	low _pBDTEntryOut
  6862  0004DA  24F3               	addwf	prodl,w,c
  6863  0004DC  6ED9               	movwf	fsr2l,c
  6864  0004DE  0E00               	movlw	high _pBDTEntryOut
  6865  0004E0  D00A               	goto	L8
  6866  0004E2                     i2l3148:
  6867                           
  6868                           ; BSR set to: 2
  6869                           ;usb_device.c: 2868: else
  6870                           ;usb_device.c: 2869: {
  6871                           ;usb_device.c: 2870: pBDTEntryIn[SetupPkt.EPNum] = (volatile BDT_ENTRY *)p;
  6872  0004E2  0102               	movlb	2	; () banked
  6873  0004E4  5134               	movf	52,w,b	;volatile
  6874  0004E6  0B0F               	andlw	15
  6875  0004E8  6E3F               	movwf	??_USBStdFeatureReqHandler& (0+255),c
  6876  0004EA  503F               	movf	??_USBStdFeatureReqHandler,w,c
  6877  0004EC  0D02               	mullw	2
  6878  0004EE  0E0F               	movlw	low _pBDTEntryIn
  6879  0004F0  24F3               	addwf	prodl,w,c
  6880  0004F2  6ED9               	movwf	fsr2l,c
  6881  0004F4  0E00               	movlw	high _pBDTEntryIn
  6882  0004F6                     L8:
  6883  0004F6  20F4               	addwfc	prodh,w,c
  6884  0004F8  6EDA               	movwf	fsr2h,c
  6885  0004FA  C043  FFDE         	movff	USBStdFeatureReqHandler@p,postinc2
  6886  0004FE  C044  FFDD         	movff	USBStdFeatureReqHandler@p+1,postdec2
  6887                           
  6888                           ; BSR set to: 2
  6889                           ;usb_device.c: 2871: }
  6890                           ;usb_device.c: 2874: if(SetupPkt.bRequest == 3)
  6891                           
  6892                           ; BSR set to: 2
  6893  000502  0E03               	movlw	3
  6894  000504  0102               	movlb	2	; () banked
  6895  000506  1931               	xorwf	49,w,b	;volatile
  6896  000508  A4D8               	btfss	status,2,c
  6897  00050A  D02F               	goto	i2l3164
  6898                           
  6899                           ; BSR set to: 2
  6900                           ;usb_device.c: 2875: {
  6901                           ;usb_device.c: 2876: if(p->STAT.UOWN == 1)
  6902  00050C  C043  FFD9         	movff	USBStdFeatureReqHandler@p,fsr2l
  6903  000510  C044  FFDA         	movff	USBStdFeatureReqHandler@p+1,fsr2h
  6904  000514  AEDF               	btfss	indf2,7,c
  6905  000516  D01C               	goto	i2l3160
  6906                           
  6907                           ; BSR set to: 2
  6908                           ;usb_device.c: 2877: {
  6909                           ;usb_device.c: 2880: if(SetupPkt.EPDir == 0)
  6910  000518  0102               	movlb	2	; () banked
  6911  00051A  BF34               	btfsc	52,7,b	;volatile
  6912  00051C  D00B               	goto	i2l3158
  6913                           
  6914                           ; BSR set to: 2
  6915                           ;usb_device.c: 2881: {
  6916                           ;usb_device.c: 2882: ep_data_out[SetupPkt.EPNum].bits.transfer_terminated = 1;
  6917  00051E  0102               	movlb	2	; () banked
  6918  000520  5134               	movf	52,w,b	;volatile
  6919  000522  0B0F               	andlw	15
  6920  000524  6E3F               	movwf	??_USBStdFeatureReqHandler& (0+255),c
  6921  000526  503F               	movf	??_USBStdFeatureReqHandler,w,c
  6922  000528  0D01               	mullw	1
  6923  00052A  0EDB               	movlw	low _ep_data_out
  6924  00052C  24F3               	addwf	prodl,w,c
  6925  00052E  6ED9               	movwf	fsr2l,c
  6926  000530  0E00               	movlw	high _ep_data_out
  6927  000532  D00A               	goto	L9
  6928  000534                     i2l3158:
  6929                           
  6930                           ;usb_device.c: 2884: else
  6931                           ;usb_device.c: 2885: {
  6932                           ;usb_device.c: 2886: ep_data_in[SetupPkt.EPNum].bits.transfer_terminated = 1;
  6933  000534  0102               	movlb	2	; () banked
  6934  000536  5134               	movf	52,w,b	;volatile
  6935  000538  0B0F               	andlw	15
  6936  00053A  6E3F               	movwf	??_USBStdFeatureReqHandler& (0+255),c
  6937  00053C  503F               	movf	??_USBStdFeatureReqHandler,w,c
  6938  00053E  0D01               	mullw	1
  6939  000540  0ED8               	movlw	low _ep_data_in
  6940  000542  24F3               	addwf	prodl,w,c
  6941  000544  6ED9               	movwf	fsr2l,c
  6942  000546  0E00               	movlw	high _ep_data_in
  6943  000548                     L9:
  6944  000548  20F4               	addwfc	prodh,w,c
  6945  00054A  6EDA               	movwf	fsr2h,c
  6946  00054C  0100               	movlb	0	; () banked
  6947  00054E  82DF               	bsf	indf2,1,c
  6948  000550                     i2l3160:
  6949                           
  6950                           ;usb_device.c: 2887: }
  6951                           ;usb_device.c: 2888: }
  6952                           ;usb_device.c: 2891: p->STAT.Val |= 0x04;
  6953  000550  C043  FFD9         	movff	USBStdFeatureReqHandler@p,fsr2l
  6954  000554  C044  FFDA         	movff	USBStdFeatureReqHandler@p+1,fsr2h
  6955  000558  0E00               	movlw	0
  6956  00055A  84DB               	bsf	plusw2,2,c
  6957                           
  6958                           ;usb_device.c: 2892: p->STAT.Val |= 0x80;
  6959  00055C  C043  FFD9         	movff	USBStdFeatureReqHandler@p,fsr2l
  6960  000560  C044  FFDA         	movff	USBStdFeatureReqHandler@p+1,fsr2h
  6961  000564  0E00               	movlw	0
  6962  000566  8EDB               	bsf	plusw2,7,c
  6963                           
  6964                           ;usb_device.c: 2893: }
  6965  000568  0012               	return	
  6966  00056A                     i2l3164:
  6967                           
  6968                           ;usb_device.c: 2894: else
  6969                           ;usb_device.c: 2895: {
  6970                           ;usb_device.c: 2899: {((uint8_t_VAL*)&p)->Val ^= 0x0004;};
  6971  00056A  0E04               	movlw	4
  6972  00056C  1A43               	xorwf	USBStdFeatureReqHandler@p,f,c
  6973                           
  6974                           ;usb_device.c: 2901: if(p->STAT.UOWN == 1)
  6975  00056E  C043  FFD9         	movff	USBStdFeatureReqHandler@p,fsr2l
  6976  000572  C044  FFDA         	movff	USBStdFeatureReqHandler@p+1,fsr2h
  6977  000576  AEDF               	btfss	indf2,7,c
  6978  000578  D01B               	goto	i2l3174
  6979                           
  6980                           ;usb_device.c: 2902: {
  6981                           ;usb_device.c: 2905: p->STAT.Val &= (~0x80);
  6982  00057A  C043  FFD9         	movff	USBStdFeatureReqHandler@p,fsr2l
  6983  00057E  C044  FFDA         	movff	USBStdFeatureReqHandler@p+1,fsr2h
  6984  000582  0E7F               	movlw	127
  6985  000584  16DF               	andwf	indf2,f,c
  6986                           
  6987                           ;usb_device.c: 2906: p->STAT.Val |= 0x40;
  6988  000586  C043  FFD9         	movff	USBStdFeatureReqHandler@p,fsr2l
  6989  00058A  C044  FFDA         	movff	USBStdFeatureReqHandler@p+1,fsr2h
  6990  00058E  0E00               	movlw	0
  6991  000590  8CDB               	bsf	plusw2,6,c
  6992                           
  6993                           ;usb_device.c: 2907: USER_USB_CALLBACK_EVENT_HANDLER(EVENT_TRANSFER_TERMINATED,p,sizeof(
      +                          p));
  6994  000592  0E00               	movlw	0
  6995  000594  6E38               	movwf	USER_USB_CALLBACK_EVENT_HANDLER@event+1,c
  6996  000596  0E05               	movlw	5
  6997  000598  6E37               	movwf	USER_USB_CALLBACK_EVENT_HANDLER@event,c
  6998  00059A  C043  F039         	movff	USBStdFeatureReqHandler@p,USER_USB_CALLBACK_EVENT_HANDLER@pdata
  6999  00059E  C044  F03A         	movff	USBStdFeatureReqHandler@p+1,USER_USB_CALLBACK_EVENT_HANDLER@pdata+1
  7000  0005A2  0E00               	movlw	0
  7001  0005A4  6E3C               	movwf	USER_USB_CALLBACK_EVENT_HANDLER@size+1,c
  7002  0005A6  0E02               	movlw	2
  7003  0005A8  6E3B               	movwf	USER_USB_CALLBACK_EVENT_HANDLER@size,c
  7004  0005AA  ECD6  F00D         	call	_USER_USB_CALLBACK_EVENT_HANDLER	;wreg free
  7005                           
  7006                           ;usb_device.c: 2908: }
  7007  0005AE  D006               	goto	i2l3176
  7008  0005B0                     i2l3174:
  7009                           
  7010                           ;usb_device.c: 2909: else
  7011                           ;usb_device.c: 2910: {
  7012                           ;usb_device.c: 2912: p->STAT.Val |= 0x40;
  7013  0005B0  C043  FFD9         	movff	USBStdFeatureReqHandler@p,fsr2l
  7014  0005B4  C044  FFDA         	movff	USBStdFeatureReqHandler@p+1,fsr2h
  7015  0005B8  0E00               	movlw	0
  7016  0005BA  8CDB               	bsf	plusw2,6,c
  7017  0005BC                     i2l3176:
  7018                           
  7019                           ;usb_device.c: 2913: }
  7020                           ;usb_device.c: 2917: {((uint8_t_VAL*)&p)->Val ^= 0x0004;};
  7021  0005BC  0E04               	movlw	4
  7022  0005BE  1A43               	xorwf	USBStdFeatureReqHandler@p,f,c
  7023                           
  7024                           ;usb_device.c: 2923: if((current_ep_data.bits.transfer_terminated != 0) || (p->STAT.UOWN
      +                           == 1))
  7025  0005C0  B242               	btfsc	USBStdFeatureReqHandler@current_ep_data,1,c
  7026  0005C2  D006               	goto	i2l411
  7027  0005C4  C043  FFD9         	movff	USBStdFeatureReqHandler@p,fsr2l
  7028  0005C8  C044  FFDA         	movff	USBStdFeatureReqHandler@p+1,fsr2h
  7029  0005CC  AEDF               	btfss	indf2,7,c
  7030  0005CE  D031               	goto	i2l3190
  7031  0005D0                     i2l411:
  7032                           
  7033                           ;usb_device.c: 2924: {
  7034                           ;usb_device.c: 2925: if(SetupPkt.EPDir == 0)
  7035  0005D0  0102               	movlb	2	; () banked
  7036  0005D2  BF34               	btfsc	52,7,b	;volatile
  7037  0005D4  D00B               	goto	i2l3184
  7038                           
  7039                           ; BSR set to: 2
  7040                           ;usb_device.c: 2926: {
  7041                           ;usb_device.c: 2927: ep_data_out[SetupPkt.EPNum].bits.transfer_terminated = 0;
  7042  0005D6  0102               	movlb	2	; () banked
  7043  0005D8  5134               	movf	52,w,b	;volatile
  7044  0005DA  0B0F               	andlw	15
  7045  0005DC  6E3F               	movwf	??_USBStdFeatureReqHandler& (0+255),c
  7046  0005DE  503F               	movf	??_USBStdFeatureReqHandler,w,c
  7047  0005E0  0D01               	mullw	1
  7048  0005E2  0EDB               	movlw	low _ep_data_out
  7049  0005E4  24F3               	addwf	prodl,w,c
  7050  0005E6  6ED9               	movwf	fsr2l,c
  7051  0005E8  0E00               	movlw	high _ep_data_out
  7052  0005EA  D00A               	goto	L10
  7053  0005EC                     i2l3184:
  7054                           
  7055                           ;usb_device.c: 2929: else
  7056                           ;usb_device.c: 2930: {
  7057                           ;usb_device.c: 2931: ep_data_in[SetupPkt.EPNum].bits.transfer_terminated = 0;
  7058  0005EC  0102               	movlb	2	; () banked
  7059  0005EE  5134               	movf	52,w,b	;volatile
  7060  0005F0  0B0F               	andlw	15
  7061  0005F2  6E3F               	movwf	??_USBStdFeatureReqHandler& (0+255),c
  7062  0005F4  503F               	movf	??_USBStdFeatureReqHandler,w,c
  7063  0005F6  0D01               	mullw	1
  7064  0005F8  0ED8               	movlw	low _ep_data_in
  7065  0005FA  24F3               	addwf	prodl,w,c
  7066  0005FC  6ED9               	movwf	fsr2l,c
  7067  0005FE  0E00               	movlw	high _ep_data_in
  7068  000600                     L10:
  7069  000600  20F4               	addwfc	prodh,w,c
  7070  000602  6EDA               	movwf	fsr2h,c
  7071  000604  0100               	movlb	0	; () banked
  7072  000606  92DF               	bcf	indf2,1,c
  7073                           
  7074                           ; BSR set to: 0
  7075                           ;usb_device.c: 2932: }
  7076                           ;usb_device.c: 2934: p->STAT.Val &= ~(0x80 | 0x40 | 0x04);
  7077                           
  7078                           ; BSR set to: 0
  7079  000608  C043  FFD9         	movff	USBStdFeatureReqHandler@p,fsr2l
  7080  00060C  C044  FFDA         	movff	USBStdFeatureReqHandler@p+1,fsr2h
  7081  000610  0E3B               	movlw	59
  7082  000612  16DF               	andwf	indf2,f,c
  7083                           
  7084                           ; BSR set to: 0
  7085                           ;usb_device.c: 2937: USER_USB_CALLBACK_EVENT_HANDLER(EVENT_TRANSFER_TERMINATED,p,sizeof(
      +                          p));
  7086  000614  0E00               	movlw	0
  7087  000616  6E38               	movwf	USER_USB_CALLBACK_EVENT_HANDLER@event+1,c
  7088  000618  0E05               	movlw	5
  7089  00061A  6E37               	movwf	USER_USB_CALLBACK_EVENT_HANDLER@event,c
  7090  00061C  C043  F039         	movff	USBStdFeatureReqHandler@p,USER_USB_CALLBACK_EVENT_HANDLER@pdata
  7091  000620  C044  F03A         	movff	USBStdFeatureReqHandler@p+1,USER_USB_CALLBACK_EVENT_HANDLER@pdata+1
  7092  000624  0E00               	movlw	0
  7093  000626  6E3C               	movwf	USER_USB_CALLBACK_EVENT_HANDLER@size+1,c
  7094  000628  0E02               	movlw	2
  7095  00062A  6E3B               	movwf	USER_USB_CALLBACK_EVENT_HANDLER@size,c
  7096  00062C  ECD6  F00D         	call	_USER_USB_CALLBACK_EVENT_HANDLER	;wreg free
  7097                           
  7098                           ;usb_device.c: 2938: }
  7099  000630  D006               	goto	i2l3192
  7100  000632                     i2l3190:
  7101                           
  7102                           ;usb_device.c: 2939: else
  7103                           ;usb_device.c: 2940: {
  7104                           ;usb_device.c: 2942: p->STAT.Val &= ~(0x80 | 0x40 | 0x04);
  7105  000632  C043  FFD9         	movff	USBStdFeatureReqHandler@p,fsr2l
  7106  000636  C044  FFDA         	movff	USBStdFeatureReqHandler@p+1,fsr2h
  7107  00063A  0E3B               	movlw	59
  7108  00063C  16DF               	andwf	indf2,f,c
  7109  00063E                     i2l3192:
  7110                           
  7111                           ;usb_device.c: 2943: }
  7112                           ;usb_device.c: 2990: pUEP = (unsigned char*)(&UEP0+SetupPkt.EPNum);
  7113  00063E  0102               	movlb	2	; () banked
  7114  000640  5134               	movf	52,w,b	;volatile
  7115  000642  0B0F               	andlw	15
  7116  000644  6E3F               	movwf	??_USBStdFeatureReqHandler& (0+255),c
  7117  000646  503F               	movf	??_USBStdFeatureReqHandler,w,c
  7118  000648  0D01               	mullw	1
  7119  00064A  0E53               	movlw	83
  7120  00064C  24F3               	addwf	prodl,w,c
  7121  00064E  6E40               	movwf	USBStdFeatureReqHandler@pUEP,c
  7122  000650  0E0F               	movlw	15
  7123  000652  20F4               	addwfc	prodh,w,c
  7124  000654  6E41               	movwf	USBStdFeatureReqHandler@pUEP+1,c
  7125                           
  7126                           ; BSR set to: 2
  7127                           ;usb_device.c: 2994: *pUEP &= ~0x0001;
  7128  000656  C040  FFD9         	movff	USBStdFeatureReqHandler@pUEP,fsr2l
  7129  00065A  C041  FFDA         	movff	USBStdFeatureReqHandler@pUEP+1,fsr2h
  7130  00065E  0EFE               	movlw	254
  7131  000660  16DF               	andwf	indf2,f,c
  7132                           
  7133                           ; BSR set to: 2
  7134  000662  0012               	return	
  7135  000664                     __end_of_USBStdFeatureReqHandler:
  7136                           	opt stack 0
  7137                           pclatu	equ	0xFFB
  7138                           pclath	equ	0xFFA
  7139                           tblptru	equ	0xFF8
  7140                           tblptrh	equ	0xFF7
  7141                           tblptrl	equ	0xFF6
  7142                           tablat	equ	0xFF5
  7143                           prodh	equ	0xFF4
  7144                           prodl	equ	0xFF3
  7145                           intcon	equ	0xFF2
  7146                           postinc0	equ	0xFEE
  7147                           fsr0h	equ	0xFEA
  7148                           fsr0l	equ	0xFE9
  7149                           wreg	equ	0xFE8
  7150                           indf1	equ	0xFE7
  7151                           fsr1h	equ	0xFE2
  7152                           fsr1l	equ	0xFE1
  7153                           indf2	equ	0xFDF
  7154                           postinc2	equ	0xFDE
  7155                           postdec2	equ	0xFDD
  7156                           plusw2	equ	0xFDB
  7157                           fsr2h	equ	0xFDA
  7158                           fsr2l	equ	0xFD9
  7159                           status	equ	0xFD8
  7160                           
  7161 ;; *************** function _USER_USB_CALLBACK_EVENT_HANDLER *****************
  7162 ;; Defined at:
  7163 ;;		line 55 in file "CDCLib/cdc.c"
  7164 ;; Parameters:    Size  Location     Type
  7165 ;;  event           2   12[COMRAM] enum E3798
  7166 ;;  pdata           2   14[COMRAM] PTR void 
  7167 ;;		 -> USTATcopy(1), USBActiveConfiguration(1), NULL(0), BDT(48), 
  7168 ;;  size            2   16[COMRAM] unsigned int 
  7169 ;; Auto vars:     Size  Location     Type
  7170 ;;		None
  7171 ;; Return value:  Size  Location     Type
  7172 ;;                  1    wreg      unsigned char 
  7173 ;; Registers used:
  7174 ;;		wreg, fsr2l, fsr2h, status,2, status,0, prodl, prodh, cstack
  7175 ;; Tracked objects:
  7176 ;;		On entry : 0/0
  7177 ;;		On exit  : 0/0
  7178 ;;		Unchanged: 0/0
  7179 ;; Data sizes:     COMRAM   BANK0   BANK1   BANK2
  7180 ;;      Params:         6       0       0       0
  7181 ;;      Locals:         0       0       0       0
  7182 ;;      Temps:          2       0       0       0
  7183 ;;      Totals:         8       0       0       0
  7184 ;;Total ram usage:        8 bytes
  7185 ;; Hardware stack levels used:    1
  7186 ;; Hardware stack levels required when called:    4
  7187 ;; This function calls:
  7188 ;;		_USBCheckCDCRequest
  7189 ;;		_cdcInit
  7190 ;;		i2_SYSTEM_Initialize
  7191 ;; This function is called by:
  7192 ;;		_USBDeviceTasks
  7193 ;;		_USBStdSetCfgHandler
  7194 ;;		_USBSuspend
  7195 ;;		_USBWakeFromSuspend
  7196 ;;		_USBCtrlTrfSetupHandler
  7197 ;;		_USBCheckStdRequest
  7198 ;;		_USBStdFeatureReqHandler
  7199 ;; This function uses a non-reentrant model
  7200 ;;
  7201                           
  7202                           	psect	text34
  7203  001BAC                     __ptext34:
  7204                           	opt stack 0
  7205  001BAC                     _USER_USB_CALLBACK_EVENT_HANDLER:
  7206                           	opt stack 21
  7207                           
  7208                           ;cdc.c: 57: switch( (int) event )
  7209                           
  7210                           ;incstack = 0
  7211  001BAC  D00E               	goto	i2l2896
  7212  001BAE                     i2l2886:
  7213                           
  7214                           ;cdc.c: 78: SYSTEM_Initialize(SYSTEM_STATE_USB_SUSPEND);
  7215  001BAE  0E01               	movlw	1
  7216  001BB0  EC22  F010         	call	i2_SYSTEM_Initialize
  7217                           
  7218                           ;cdc.c: 79: break;
  7219  001BB4  0012               	return	
  7220  001BB6                     i2l2888:
  7221                           
  7222                           ;cdc.c: 89: SYSTEM_Initialize(SYSTEM_STATE_USB_RESUME);
  7223  001BB6  0E02               	movlw	2
  7224  001BB8  EC22  F010         	call	i2_SYSTEM_Initialize
  7225                           
  7226                           ;cdc.c: 90: break;
  7227  001BBC  0012               	return	
  7228  001BBE                     i2l2890:
  7229                           
  7230                           ;cdc.c: 97: cdcInit();
  7231  001BBE  ECC1  F00F         	call	_cdcInit	;wreg free
  7232                           
  7233                           ;cdc.c: 102: break;
  7234                           
  7235                           ;cdc.c: 101: case EVENT_SET_DESCRIPTOR:
  7236                           
  7237                           ;cdc.c: 99: break;
  7238  001BC2  0012               	return	
  7239  001BC4                     i2l2892:
  7240                           
  7241                           ;cdc.c: 107: USBCheckCDCRequest();
  7242  001BC4  EC32  F00B         	call	_USBCheckCDCRequest	;wreg free
  7243                           
  7244                           ;cdc.c: 118: }
  7245                           
  7246                           ;cdc.c: 117: break;
  7247                           
  7248                           ;cdc.c: 116: default:
  7249                           
  7250                           ;cdc.c: 114: break;
  7251                           
  7252                           ;cdc.c: 113: case EVENT_TRANSFER_TERMINATED:
  7253                           
  7254                           ;cdc.c: 111: break;
  7255                           
  7256                           ;cdc.c: 110: case EVENT_BUS_ERROR:
  7257                           
  7258                           ;cdc.c: 108: break;
  7259  001BC8  0012               	return	
  7260  001BCA                     i2l2896:
  7261  001BCA  C037  F03D         	movff	USER_USB_CALLBACK_EVENT_HANDLER@event,??_USER_USB_CALLBACK_EVENT_HANDLER
  7262  001BCE  C038  F03E         	movff	USER_USB_CALLBACK_EVENT_HANDLER@event+1,??_USER_USB_CALLBACK_EVENT_HANDLER+1
  7263                           
  7264                           ; Switch on 2 bytes has been partitioned into a top level switch of size 1, and 2 sub-sw
      +                          itches
  7265                           ; Switch size 1, requested type "space"
  7266                           ; Number of cases is 2, Range of values is 0 to 127
  7267                           ; switch strategies available:
  7268                           ; Name         Instructions Cycles
  7269                           ; simple_byte            7     4 (average)
  7270                           ;	Chosen strategy is simple_byte
  7271  001BD2  503E               	movf	??_USER_USB_CALLBACK_EVENT_HANDLER+1,w,c
  7272  001BD4  0A00               	xorlw	0	; case 0
  7273  001BD6  B4D8               	btfsc	status,2,c
  7274  001BD8  D004               	goto	i2l4644
  7275  001BDA  0A7F               	xorlw	127	; case 127
  7276  001BDC  A4D8               	btfss	status,2,c
  7277  001BDE  0012               	return	
  7278  001BE0  D01A               	goto	i2l4646
  7279  001BE2                     i2l4644:
  7280                           
  7281                           ; Switch size 1, requested type "space"
  7282                           ; Number of cases is 8, Range of values is 1 to 117
  7283                           ; switch strategies available:
  7284                           ; Name         Instructions Cycles
  7285                           ; simple_byte           25    13 (average)
  7286                           ;	Chosen strategy is simple_byte
  7287  001BE2  503D               	movf	??_USER_USB_CALLBACK_EVENT_HANDLER,w,c
  7288  001BE4  0A01               	xorlw	1	; case 1
  7289  001BE6  B4D8               	btfsc	status,2,c
  7290  001BE8  D7EA               	goto	i2l2890
  7291  001BEA  0A03               	xorlw	3	; case 2
  7292  001BEC  B4D8               	btfsc	status,2,c
  7293  001BEE  0012               	return	
  7294  001BF0  0A01               	xorlw	1	; case 3
  7295  001BF2  B4D8               	btfsc	status,2,c
  7296  001BF4  D7E7               	goto	i2l2892
  7297  001BF6  0A06               	xorlw	6	; case 5
  7298  001BF8  B4D8               	btfsc	status,2,c
  7299  001BFA  0012               	return	
  7300  001BFC  0A77               	xorlw	119	; case 114
  7301  001BFE  B4D8               	btfsc	status,2,c
  7302  001C00  0012               	return	
  7303  001C02  0A01               	xorlw	1	; case 115
  7304  001C04  B4D8               	btfsc	status,2,c
  7305  001C06  0012               	return	
  7306  001C08  0A07               	xorlw	7	; case 116
  7307  001C0A  B4D8               	btfsc	status,2,c
  7308  001C0C  D7D4               	goto	i2l2888
  7309  001C0E  0A01               	xorlw	1	; case 117
  7310  001C10  A4D8               	btfss	status,2,c
  7311  001C12  0012               	return	
  7312  001C14  D7CC               	goto	i2l2886
  7313  001C16                     i2l4646:
  7314                           
  7315                           ; Switch size 1, requested type "space"
  7316                           ; Number of cases is 1, Range of values is 255 to 255
  7317                           ; switch strategies available:
  7318                           ; Name         Instructions Cycles
  7319                           ; simple_byte            4     3 (average)
  7320                           ;	Chosen strategy is simple_byte
  7321  001C16  503D               	movf	??_USER_USB_CALLBACK_EVENT_HANDLER,w,c
  7322  001C18  0AFF               	xorlw	255	; case 255
  7323  001C1A  0012               	return	
  7324  001C1C                     __end_of_USER_USB_CALLBACK_EVENT_HANDLER:
  7325                           	opt stack 0
  7326                           pclatu	equ	0xFFB
  7327                           pclath	equ	0xFFA
  7328                           tblptru	equ	0xFF8
  7329                           tblptrh	equ	0xFF7
  7330                           tblptrl	equ	0xFF6
  7331                           tablat	equ	0xFF5
  7332                           prodh	equ	0xFF4
  7333                           prodl	equ	0xFF3
  7334                           intcon	equ	0xFF2
  7335                           postinc0	equ	0xFEE
  7336                           fsr0h	equ	0xFEA
  7337                           fsr0l	equ	0xFE9
  7338                           wreg	equ	0xFE8
  7339                           indf1	equ	0xFE7
  7340                           fsr1h	equ	0xFE2
  7341                           fsr1l	equ	0xFE1
  7342                           indf2	equ	0xFDF
  7343                           postinc2	equ	0xFDE
  7344                           postdec2	equ	0xFDD
  7345                           plusw2	equ	0xFDB
  7346                           fsr2h	equ	0xFDA
  7347                           fsr2l	equ	0xFD9
  7348                           status	equ	0xFD8
  7349                           
  7350 ;; *************** function i2_SYSTEM_Initialize *****************
  7351 ;; Defined at:
  7352 ;;		line 69 in file "CDCLib/system.c"
  7353 ;; Parameters:    Size  Location     Type
  7354 ;;  state           1    wreg     enum E3753
  7355 ;; Auto vars:     Size  Location     Type
  7356 ;;  state           1    0[COMRAM] enum E3753
  7357 ;; Return value:  Size  Location     Type
  7358 ;;		None               void
  7359 ;; Registers used:
  7360 ;;		wreg, status,2, status,0
  7361 ;; Tracked objects:
  7362 ;;		On entry : 0/0
  7363 ;;		On exit  : 0/0
  7364 ;;		Unchanged: 0/0
  7365 ;; Data sizes:     COMRAM   BANK0   BANK1   BANK2
  7366 ;;      Params:         0       0       0       0
  7367 ;;      Locals:         1       0       0       0
  7368 ;;      Temps:          0       0       0       0
  7369 ;;      Totals:         1       0       0       0
  7370 ;;Total ram usage:        1 bytes
  7371 ;; Hardware stack levels used:    1
  7372 ;; This function calls:
  7373 ;;		Nothing
  7374 ;; This function is called by:
  7375 ;;		_USER_USB_CALLBACK_EVENT_HANDLER
  7376 ;; This function uses a non-reentrant model
  7377 ;;
  7378                           
  7379                           	psect	text35
  7380  002044                     __ptext35:
  7381                           	opt stack 0
  7382  002044                     i2_SYSTEM_Initialize:
  7383                           	opt stack 24
  7384                           
  7385                           ;incstack = 0
  7386                           ;i2SYSTEM_Initialize@state stored from wreg
  7387  002044  6E2B               	movwf	i2SYSTEM_Initialize@state,c
  7388                           
  7389                           ;system.c: 81: }
  7390                           
  7391                           ;system.c: 80: break;
  7392                           
  7393                           ;system.c: 79: case SYSTEM_STATE_USB_RESUME:
  7394                           
  7395                           ;system.c: 77: break;
  7396                           
  7397                           ;system.c: 76: case SYSTEM_STATE_USB_SUSPEND:
  7398                           
  7399                           ;system.c: 74: break;
  7400                           
  7401                           ;system.c: 72: {
  7402                           ;system.c: 73: case SYSTEM_STATE_USB_START:
  7403                           
  7404                           ;system.c: 71: switch(state)
  7405  002046  502B               	movf	i2SYSTEM_Initialize@state,w,c
  7406                           
  7407                           ; Switch size 1, requested type "space"
  7408                           ; Number of cases is 3, Range of values is 0 to 2
  7409                           ; switch strategies available:
  7410                           ; Name         Instructions Cycles
  7411                           ; simple_byte           10     6 (average)
  7412                           ;	Chosen strategy is simple_byte
  7413  002048  0A00               	xorlw	0	; case 0
  7414  00204A  B4D8               	btfsc	status,2,c
  7415  00204C  0012               	return	
  7416  00204E  0A01               	xorlw	1	; case 1
  7417  002050  B4D8               	btfsc	status,2,c
  7418  002052  0012               	return	
  7419  002054  0A03               	xorlw	3	; case 2
  7420  002056  0012               	return	
  7421  002058                     __end_ofi2_SYSTEM_Initialize:
  7422                           	opt stack 0
  7423                           pclatu	equ	0xFFB
  7424                           pclath	equ	0xFFA
  7425                           tblptru	equ	0xFF8
  7426                           tblptrh	equ	0xFF7
  7427                           tblptrl	equ	0xFF6
  7428                           tablat	equ	0xFF5
  7429                           prodh	equ	0xFF4
  7430                           prodl	equ	0xFF3
  7431                           intcon	equ	0xFF2
  7432                           postinc0	equ	0xFEE
  7433                           fsr0h	equ	0xFEA
  7434                           fsr0l	equ	0xFE9
  7435                           wreg	equ	0xFE8
  7436                           indf1	equ	0xFE7
  7437                           fsr1h	equ	0xFE2
  7438                           fsr1l	equ	0xFE1
  7439                           indf2	equ	0xFDF
  7440                           postinc2	equ	0xFDE
  7441                           postdec2	equ	0xFDD
  7442                           plusw2	equ	0xFDB
  7443                           fsr2h	equ	0xFDA
  7444                           fsr2l	equ	0xFD9
  7445                           status	equ	0xFD8
  7446                           
  7447 ;; *************** function _cdcInit *****************
  7448 ;; Defined at:
  7449 ;;		line 3 in file "CDCLib/cdc.c"
  7450 ;; Parameters:    Size  Location     Type
  7451 ;;		None
  7452 ;; Auto vars:     Size  Location     Type
  7453 ;;		None
  7454 ;; Return value:  Size  Location     Type
  7455 ;;		None               void
  7456 ;; Registers used:
  7457 ;;		wreg, fsr2l, fsr2h, status,2, status,0, prodl, prodh, cstack
  7458 ;; Tracked objects:
  7459 ;;		On entry : 0/0
  7460 ;;		On exit  : 0/0
  7461 ;;		Unchanged: 0/0
  7462 ;; Data sizes:     COMRAM   BANK0   BANK1   BANK2
  7463 ;;      Params:         0       0       0       0
  7464 ;;      Locals:         0       0       0       0
  7465 ;;      Temps:          0       0       0       0
  7466 ;;      Totals:         0       0       0       0
  7467 ;;Total ram usage:        0 bytes
  7468 ;; Hardware stack levels used:    1
  7469 ;; Hardware stack levels required when called:    3
  7470 ;; This function calls:
  7471 ;;		_CDCInitEP
  7472 ;; This function is called by:
  7473 ;;		_USER_USB_CALLBACK_EVENT_HANDLER
  7474 ;; This function uses a non-reentrant model
  7475 ;;
  7476                           
  7477                           	psect	text36
  7478  001F82                     __ptext36:
  7479                           	opt stack 0
  7480  001F82                     _cdcInit:
  7481                           	opt stack 21
  7482                           
  7483                           ;cdc.c: 5: CDCInitEP();
  7484                           
  7485                           ;incstack = 0
  7486  001F82  EC0E  F00E         	call	_CDCInitEP	;wreg free
  7487                           
  7488                           ;cdc.c: 6: line_coding.bCharFormat = 0;
  7489  001F86  0E00               	movlw	0
  7490  001F88  0100               	movlb	0	; () banked
  7491  001F8A  6FF9               	movwf	(_line_coding+4)& (0+255),b
  7492                           
  7493                           ; BSR set to: 0
  7494                           ;cdc.c: 7: line_coding.bDataBits = 8;
  7495  001F8C  0E08               	movlw	8
  7496  001F8E  0100               	movlb	0	; () banked
  7497  001F90  6FFB               	movwf	(_line_coding+6)& (0+255),b
  7498                           
  7499                           ; BSR set to: 0
  7500                           ;cdc.c: 8: line_coding.bParityType = 0;
  7501  001F92  0E00               	movlw	0
  7502  001F94  0100               	movlb	0	; () banked
  7503  001F96  6FFA               	movwf	(_line_coding+5)& (0+255),b
  7504                           
  7505                           ; BSR set to: 0
  7506                           ;cdc.c: 9: line_coding.dwDTERate = 9600;
  7507  001F98  0E80               	movlw	128
  7508  001F9A  0100               	movlb	0	; () banked
  7509  001F9C  6FF5               	movwf	_line_coding& (0+255),b
  7510  001F9E  0E25               	movlw	37
  7511  001FA0  6FF6               	movwf	(_line_coding+1)& (0+255),b
  7512  001FA2  0E00               	movlw	0
  7513  001FA4  6FF7               	movwf	(_line_coding+2)& (0+255),b
  7514  001FA6  0E00               	movlw	0
  7515  001FA8  6FF8               	movwf	(_line_coding+3)& (0+255),b
  7516                           
  7517                           ; BSR set to: 0
  7518  001FAA  0012               	return		;funcret
  7519  001FAC                     __end_of_cdcInit:
  7520                           	opt stack 0
  7521                           pclatu	equ	0xFFB
  7522                           pclath	equ	0xFFA
  7523                           tblptru	equ	0xFF8
  7524                           tblptrh	equ	0xFF7
  7525                           tblptrl	equ	0xFF6
  7526                           tablat	equ	0xFF5
  7527                           prodh	equ	0xFF4
  7528                           prodl	equ	0xFF3
  7529                           intcon	equ	0xFF2
  7530                           postinc0	equ	0xFEE
  7531                           fsr0h	equ	0xFEA
  7532                           fsr0l	equ	0xFE9
  7533                           wreg	equ	0xFE8
  7534                           indf1	equ	0xFE7
  7535                           fsr1h	equ	0xFE2
  7536                           fsr1l	equ	0xFE1
  7537                           indf2	equ	0xFDF
  7538                           postinc2	equ	0xFDE
  7539                           postdec2	equ	0xFDD
  7540                           plusw2	equ	0xFDB
  7541                           fsr2h	equ	0xFDA
  7542                           fsr2l	equ	0xFD9
  7543                           status	equ	0xFD8
  7544                           
  7545 ;; *************** function _CDCInitEP *****************
  7546 ;; Defined at:
  7547 ;;		line 294 in file "CDCLib/usb_device_cdc.c"
  7548 ;; Parameters:    Size  Location     Type
  7549 ;;		None
  7550 ;; Auto vars:     Size  Location     Type
  7551 ;;		None
  7552 ;; Return value:  Size  Location     Type
  7553 ;;		None               void
  7554 ;; Registers used:
  7555 ;;		wreg, fsr2l, fsr2h, status,2, status,0, prodl, prodh, cstack
  7556 ;; Tracked objects:
  7557 ;;		On entry : 0/0
  7558 ;;		On exit  : 0/0
  7559 ;;		Unchanged: 0/0
  7560 ;; Data sizes:     COMRAM   BANK0   BANK1   BANK2
  7561 ;;      Params:         0       0       0       0
  7562 ;;      Locals:         0       0       0       0
  7563 ;;      Temps:          0       0       0       0
  7564 ;;      Totals:         0       0       0       0
  7565 ;;Total ram usage:        0 bytes
  7566 ;; Hardware stack levels used:    1
  7567 ;; Hardware stack levels required when called:    2
  7568 ;; This function calls:
  7569 ;;		_USBEnableEndpoint
  7570 ;;		i2_USBTransferOnePacket
  7571 ;; This function is called by:
  7572 ;;		_cdcInit
  7573 ;; This function uses a non-reentrant model
  7574 ;;
  7575                           
  7576                           	psect	text37
  7577  001C1C                     __ptext37:
  7578                           	opt stack 0
  7579  001C1C                     _CDCInitEP:
  7580                           	opt stack 21
  7581                           
  7582                           ;usb_device_cdc.c: 297: line_coding.dwDTERate = 19200;
  7583                           
  7584                           ; BSR set to: 0
  7585                           ;incstack = 0
  7586  001C1C  0E00               	movlw	0
  7587  001C1E  0100               	movlb	0	; () banked
  7588  001C20  6FF5               	movwf	_line_coding& (0+255),b
  7589  001C22  0E4B               	movlw	75
  7590  001C24  6FF6               	movwf	(_line_coding+1)& (0+255),b
  7591  001C26  0E00               	movlw	0
  7592  001C28  6FF7               	movwf	(_line_coding+2)& (0+255),b
  7593  001C2A  0E00               	movlw	0
  7594  001C2C  6FF8               	movwf	(_line_coding+3)& (0+255),b
  7595                           
  7596                           ;usb_device_cdc.c: 298: line_coding.bCharFormat = 0x00;
  7597  001C2E  0E00               	movlw	0
  7598  001C30  0100               	movlb	0	; () banked
  7599  001C32  6FF9               	movwf	(_line_coding+4)& (0+255),b
  7600                           
  7601                           ;usb_device_cdc.c: 299: line_coding.bParityType = 0x00;
  7602  001C34  0E00               	movlw	0
  7603  001C36  0100               	movlb	0	; () banked
  7604  001C38  6FFA               	movwf	(_line_coding+5)& (0+255),b
  7605                           
  7606                           ;usb_device_cdc.c: 300: line_coding.bDataBits = 0x08;
  7607  001C3A  0E08               	movlw	8
  7608  001C3C  0100               	movlb	0	; () banked
  7609  001C3E  6FFB               	movwf	(_line_coding+6)& (0+255),b
  7610                           
  7611                           ;usb_device_cdc.c: 302: cdc_rx_len = 0;
  7612  001C40  0E00               	movlw	0
  7613  001C42  6E23               	movwf	_cdc_rx_len,c
  7614                           
  7615                           ; BSR set to: 0
  7616                           ;usb_device_cdc.c: 315: USBEnableEndpoint(1,0x02|0x10|0x08);
  7617  001C44  0E1A               	movlw	26
  7618  001C46  6E33               	movwf	USBEnableEndpoint@options,c
  7619  001C48  0E01               	movlw	1
  7620  001C4A  EC10  F00F         	call	_USBEnableEndpoint
  7621                           
  7622                           ;usb_device_cdc.c: 316: USBEnableEndpoint(2,0x02|0x04|0x10|0x08);
  7623  001C4E  0E1E               	movlw	30
  7624  001C50  6E33               	movwf	USBEnableEndpoint@options,c
  7625  001C52  0E02               	movlw	2
  7626  001C54  EC10  F00F         	call	_USBEnableEndpoint
  7627                           
  7628                           ;usb_device_cdc.c: 318: CDCDataOutHandle = USBTransferOnePacket(2,0,(uint8_t*)&cdc_data_
      +                          rx,sizeof(cdc_data_rx));
  7629  001C58  0E00               	movlw	0
  7630  001C5A  6E2B               	movwf	i2USBTransferOnePacket@dir,c
  7631  001C5C  0E80               	movlw	128
  7632  001C5E  6E2C               	movwf	i2USBTransferOnePacket@data,c
  7633  001C60  0E02               	movlw	2
  7634  001C62  6E2D               	movwf	i2USBTransferOnePacket@data+1,c
  7635  001C64  0E40               	movlw	64
  7636  001C66  6E2E               	movwf	i2USBTransferOnePacket@len,c
  7637  001C68  0E02               	movlw	2
  7638  001C6A  EC78  F00A         	call	i2_USBTransferOnePacket
  7639  001C6E  C02B  F015         	movff	?i2_USBTransferOnePacket,_CDCDataOutHandle
  7640  001C72  C02C  F016         	movff	?i2_USBTransferOnePacket+1,_CDCDataOutHandle+1
  7641                           
  7642                           ;usb_device_cdc.c: 319: CDCDataInHandle = (0);
  7643  001C76  0E00               	movlw	0
  7644  001C78  0100               	movlb	0	; () banked
  7645  001C7A  6FE4               	movwf	_CDCDataInHandle& (0+255),b
  7646  001C7C  0E00               	movlw	0
  7647  001C7E  0100               	movlb	0	; () banked
  7648  001C80  6FE5               	movwf	(_CDCDataInHandle+1)& (0+255),b
  7649                           
  7650                           ; BSR set to: 0
  7651                           ;usb_device_cdc.c: 346: cdc_trf_state = 0;
  7652  001C82  0E00               	movlw	0
  7653  001C84  6E24               	movwf	_cdc_trf_state,c
  7654                           
  7655                           ; BSR set to: 0
  7656  001C86  0012               	return		;funcret
  7657  001C88                     __end_of_CDCInitEP:
  7658                           	opt stack 0
  7659                           pclatu	equ	0xFFB
  7660                           pclath	equ	0xFFA
  7661                           tblptru	equ	0xFF8
  7662                           tblptrh	equ	0xFF7
  7663                           tblptrl	equ	0xFF6
  7664                           tablat	equ	0xFF5
  7665                           prodh	equ	0xFF4
  7666                           prodl	equ	0xFF3
  7667                           intcon	equ	0xFF2
  7668                           postinc0	equ	0xFEE
  7669                           fsr0h	equ	0xFEA
  7670                           fsr0l	equ	0xFE9
  7671                           wreg	equ	0xFE8
  7672                           indf1	equ	0xFE7
  7673                           fsr1h	equ	0xFE2
  7674                           fsr1l	equ	0xFE1
  7675                           indf2	equ	0xFDF
  7676                           postinc2	equ	0xFDE
  7677                           postdec2	equ	0xFDD
  7678                           plusw2	equ	0xFDB
  7679                           fsr2h	equ	0xFDA
  7680                           fsr2l	equ	0xFD9
  7681                           status	equ	0xFD8
  7682                           
  7683 ;; *************** function i2_USBTransferOnePacket *****************
  7684 ;; Defined at:
  7685 ;;		line 1013 in file "CDCLib/usb_device.c"
  7686 ;; Parameters:    Size  Location     Type
  7687 ;;  ep              1    wreg     unsigned char 
  7688 ;;  dir             1    0[COMRAM] unsigned char 
  7689 ;;  data            2    1[COMRAM] PTR unsigned char 
  7690 ;;		 -> cdc_data_tx(64), cdc_data_rx(64), NULL(0), 
  7691 ;;  len             1    3[COMRAM] unsigned char 
  7692 ;; Auto vars:     Size  Location     Type
  7693 ;;  ep              1    4[COMRAM] unsigned char 
  7694 ;;  USBTransferO    2    5[COMRAM] PTR volatile struct __BD
  7695 ;;		 -> NULL(0), BDT(48), 
  7696 ;; Return value:  Size  Location     Type
  7697 ;;                  2    0[COMRAM] PTR void 
  7698 ;; Registers used:
  7699 ;;		wreg, fsr2l, fsr2h, status,2, status,0, prodl, prodh
  7700 ;; Tracked objects:
  7701 ;;		On entry : 0/0
  7702 ;;		On exit  : 0/0
  7703 ;;		Unchanged: 0/0
  7704 ;; Data sizes:     COMRAM   BANK0   BANK1   BANK2
  7705 ;;      Params:         4       0       0       0
  7706 ;;      Locals:         3       0       0       0
  7707 ;;      Temps:          0       0       0       0
  7708 ;;      Totals:         7       0       0       0
  7709 ;;Total ram usage:        7 bytes
  7710 ;; Hardware stack levels used:    1
  7711 ;; This function calls:
  7712 ;;		Nothing
  7713 ;; This function is called by:
  7714 ;;		_CDCInitEP
  7715 ;; This function uses a non-reentrant model
  7716 ;;
  7717                           
  7718                           	psect	text38
  7719  0014F0                     __ptext38:
  7720                           	opt stack 0
  7721  0014F0                     i2_USBTransferOnePacket:
  7722                           	opt stack 22
  7723                           
  7724                           ; BSR set to: 0
  7725                           ;incstack = 0
  7726                           ;i2USBTransferOnePacket@ep stored from wreg
  7727  0014F0  6E2F               	movwf	i2USBTransferOnePacket@ep,c
  7728                           
  7729                           ;usb_device.c: 1015: volatile BDT_ENTRY* handle;
  7730                           ;usb_device.c: 1018: if(dir != 0)
  7731  0014F2  502B               	movf	i2USBTransferOnePacket@dir,w,c
  7732  0014F4  B4D8               	btfsc	status,2,c
  7733  0014F6  D007               	goto	i2l2790
  7734                           
  7735                           ;usb_device.c: 1019: {
  7736                           ;usb_device.c: 1021: handle = pBDTEntryIn[ep];
  7737  0014F8  502F               	movf	i2USBTransferOnePacket@ep,w,c
  7738  0014FA  0D02               	mullw	2
  7739  0014FC  0E0F               	movlw	low _pBDTEntryIn
  7740  0014FE  24F3               	addwf	prodl,w,c
  7741  001500  6ED9               	movwf	fsr2l,c
  7742  001502  0E00               	movlw	high _pBDTEntryIn
  7743  001504  D006               	goto	L11
  7744  001506                     i2l2790:
  7745                           
  7746                           ;usb_device.c: 1023: else
  7747                           ;usb_device.c: 1024: {
  7748                           ;usb_device.c: 1026: handle = pBDTEntryOut[ep];
  7749  001506  502F               	movf	i2USBTransferOnePacket@ep,w,c
  7750  001508  0D02               	mullw	2
  7751  00150A  0ECA               	movlw	low _pBDTEntryOut
  7752  00150C  24F3               	addwf	prodl,w,c
  7753  00150E  6ED9               	movwf	fsr2l,c
  7754  001510  0E00               	movlw	high _pBDTEntryOut
  7755  001512                     L11:
  7756  001512  20F4               	addwfc	prodh,w,c
  7757  001514  6EDA               	movwf	fsr2h,c
  7758  001516  CFDE F030          	movff	postinc2,i2USBTransferOnePacket@handle
  7759  00151A  CFDD F031          	movff	postdec2,i2USBTransferOnePacket@handle+1
  7760                           
  7761                           ;usb_device.c: 1027: }
  7762                           ;usb_device.c: 1031: if(handle == 0)
  7763  00151E  5030               	movf	i2USBTransferOnePacket@handle,w,c
  7764  001520  1031               	iorwf	i2USBTransferOnePacket@handle+1,w,c
  7765  001522  A4D8               	btfss	status,2,c
  7766  001524  D005               	goto	i2l2798
  7767                           
  7768                           ;usb_device.c: 1032: {
  7769                           ;usb_device.c: 1033: return 0;
  7770  001526  0E00               	movlw	0
  7771  001528  6E2B               	movwf	?i2_USBTransferOnePacket,c
  7772  00152A  0E00               	movlw	0
  7773  00152C  6E2C               	movwf	?i2_USBTransferOnePacket+1,c
  7774  00152E  0012               	return	
  7775  001530                     i2l2798:
  7776                           
  7777                           ;usb_device.c: 1034: }
  7778                           ;usb_device.c: 1047: handle->ADR = ((uint16_t)(data));
  7779  001530  EE20 F002          	lfsr	2,2
  7780  001534  5030               	movf	i2USBTransferOnePacket@handle,w,c
  7781  001536  26D9               	addwf	fsr2l,f,c
  7782  001538  5031               	movf	i2USBTransferOnePacket@handle+1,w,c
  7783  00153A  22DA               	addwfc	fsr2h,f,c
  7784  00153C  C02C  FFDE         	movff	i2USBTransferOnePacket@data,postinc2
  7785  001540  C02D  FFDD         	movff	i2USBTransferOnePacket@data+1,postdec2
  7786                           
  7787                           ;usb_device.c: 1048: handle->CNT = len;
  7788  001544  EE20 F001          	lfsr	2,1
  7789  001548  5030               	movf	i2USBTransferOnePacket@handle,w,c
  7790  00154A  26D9               	addwf	fsr2l,f,c
  7791  00154C  5031               	movf	i2USBTransferOnePacket@handle+1,w,c
  7792  00154E  22DA               	addwfc	fsr2h,f,c
  7793  001550  C02E  FFDF         	movff	i2USBTransferOnePacket@len,indf2
  7794                           
  7795                           ;usb_device.c: 1049: handle->STAT.Val &= 0x40;
  7796  001554  C030  FFD9         	movff	i2USBTransferOnePacket@handle,fsr2l
  7797  001558  C031  FFDA         	movff	i2USBTransferOnePacket@handle+1,fsr2h
  7798  00155C  0E40               	movlw	64
  7799  00155E  16DF               	andwf	indf2,f,c
  7800                           
  7801                           ;usb_device.c: 1050: handle->STAT.Val |= (0x08 & 0x08);
  7802  001560  C030  FFD9         	movff	i2USBTransferOnePacket@handle,fsr2l
  7803  001564  C031  FFDA         	movff	i2USBTransferOnePacket@handle+1,fsr2h
  7804  001568  0E00               	movlw	0
  7805  00156A  86DB               	bsf	plusw2,3,c
  7806                           
  7807                           ;usb_device.c: 1051: handle->STAT.Val |= 0x80;
  7808  00156C  C030  FFD9         	movff	i2USBTransferOnePacket@handle,fsr2l
  7809  001570  C031  FFDA         	movff	i2USBTransferOnePacket@handle+1,fsr2h
  7810  001574  0E00               	movlw	0
  7811  001576  8EDB               	bsf	plusw2,7,c
  7812                           
  7813                           ;usb_device.c: 1054: if(dir != 0)
  7814  001578  502B               	movf	i2USBTransferOnePacket@dir,w,c
  7815  00157A  B4D8               	btfsc	status,2,c
  7816  00157C  D007               	goto	i2l2810
  7817                           
  7818                           ;usb_device.c: 1055: {
  7819                           ;usb_device.c: 1057: {((uint8_t_VAL*)&pBDTEntryIn[ep])->Val ^= 0x0004;};
  7820  00157E  502F               	movf	i2USBTransferOnePacket@ep,w,c
  7821  001580  0D02               	mullw	2
  7822  001582  0E0F               	movlw	low _pBDTEntryIn
  7823  001584  24F3               	addwf	prodl,w,c
  7824  001586  6ED9               	movwf	fsr2l,c
  7825  001588  0E00               	movlw	high _pBDTEntryIn
  7826  00158A  D006               	goto	L12
  7827  00158C                     i2l2810:
  7828                           
  7829                           ;usb_device.c: 1059: else
  7830                           ;usb_device.c: 1060: {
  7831                           ;usb_device.c: 1062: {((uint8_t_VAL*)&pBDTEntryOut[ep])->Val ^= 0x0004;};
  7832  00158C  502F               	movf	i2USBTransferOnePacket@ep,w,c
  7833  00158E  0D02               	mullw	2
  7834  001590  0ECA               	movlw	low _pBDTEntryOut
  7835  001592  24F3               	addwf	prodl,w,c
  7836  001594  6ED9               	movwf	fsr2l,c
  7837  001596  0E00               	movlw	high _pBDTEntryOut
  7838  001598                     L12:
  7839  001598  20F4               	addwfc	prodh,w,c
  7840  00159A  6EDA               	movwf	fsr2h,c
  7841  00159C  0E04               	movlw	4
  7842  00159E  1ADF               	xorwf	indf2,f,c
  7843                           
  7844                           ;usb_device.c: 1063: }
  7845                           ;usb_device.c: 1064: return (void*)handle;
  7846  0015A0  C030  F02B         	movff	i2USBTransferOnePacket@handle,?i2_USBTransferOnePacket
  7847  0015A4  C031  F02C         	movff	i2USBTransferOnePacket@handle+1,?i2_USBTransferOnePacket+1
  7848  0015A8  0012               	return	
  7849  0015AA                     __end_ofi2_USBTransferOnePacket:
  7850                           	opt stack 0
  7851                           pclatu	equ	0xFFB
  7852                           pclath	equ	0xFFA
  7853                           tblptru	equ	0xFF8
  7854                           tblptrh	equ	0xFF7
  7855                           tblptrl	equ	0xFF6
  7856                           tablat	equ	0xFF5
  7857                           prodh	equ	0xFF4
  7858                           prodl	equ	0xFF3
  7859                           intcon	equ	0xFF2
  7860                           postinc0	equ	0xFEE
  7861                           fsr0h	equ	0xFEA
  7862                           fsr0l	equ	0xFE9
  7863                           wreg	equ	0xFE8
  7864                           indf1	equ	0xFE7
  7865                           fsr1h	equ	0xFE2
  7866                           fsr1l	equ	0xFE1
  7867                           indf2	equ	0xFDF
  7868                           postinc2	equ	0xFDE
  7869                           postdec2	equ	0xFDD
  7870                           plusw2	equ	0xFDB
  7871                           fsr2h	equ	0xFDA
  7872                           fsr2l	equ	0xFD9
  7873                           status	equ	0xFD8
  7874                           
  7875 ;; *************** function _USBEnableEndpoint *****************
  7876 ;; Defined at:
  7877 ;;		line 896 in file "CDCLib/usb_device.c"
  7878 ;; Parameters:    Size  Location     Type
  7879 ;;  ep              1    wreg     unsigned char 
  7880 ;;  options         1    8[COMRAM] unsigned char 
  7881 ;; Auto vars:     Size  Location     Type
  7882 ;;  ep              1   11[COMRAM] unsigned char 
  7883 ;;  p               2    9[COMRAM] PTR unsigned char 
  7884 ;;		 -> UEP0(1), 
  7885 ;; Return value:  Size  Location     Type
  7886 ;;		None               void
  7887 ;; Registers used:
  7888 ;;		wreg, fsr2l, fsr2h, status,2, status,0, prodl, prodh, cstack
  7889 ;; Tracked objects:
  7890 ;;		On entry : 0/0
  7891 ;;		On exit  : 0/0
  7892 ;;		Unchanged: 0/0
  7893 ;; Data sizes:     COMRAM   BANK0   BANK1   BANK2
  7894 ;;      Params:         1       0       0       0
  7895 ;;      Locals:         3       0       0       0
  7896 ;;      Temps:          0       0       0       0
  7897 ;;      Totals:         4       0       0       0
  7898 ;;Total ram usage:        4 bytes
  7899 ;; Hardware stack levels used:    1
  7900 ;; Hardware stack levels required when called:    1
  7901 ;; This function calls:
  7902 ;;		_USBConfigureEndpoint
  7903 ;; This function is called by:
  7904 ;;		_CDCInitEP
  7905 ;; This function uses a non-reentrant model
  7906 ;;
  7907                           
  7908                           	psect	text39
  7909  001E20                     __ptext39:
  7910                           	opt stack 0
  7911  001E20                     _USBEnableEndpoint:
  7912                           	opt stack 21
  7913                           
  7914                           ;incstack = 0
  7915                           ;USBEnableEndpoint@ep stored from wreg
  7916  001E20  6E36               	movwf	USBEnableEndpoint@ep,c
  7917                           
  7918                           ;usb_device.c: 898: unsigned char* p;
  7919                           ;usb_device.c: 902: if(options & 0x04)
  7920  001E22  A433               	btfss	USBEnableEndpoint@options,2,c
  7921  001E24  D005               	goto	i2l2778
  7922                           
  7923                           ;usb_device.c: 903: {
  7924                           ;usb_device.c: 904: USBConfigureEndpoint(ep, 0);
  7925  001E26  0E00               	movlw	0
  7926  001E28  6E2B               	movwf	USBConfigureEndpoint@direction,c
  7927  001E2A  5036               	movf	USBEnableEndpoint@ep,w,c
  7928  001E2C  EC7D  F00C         	call	_USBConfigureEndpoint
  7929  001E30                     i2l2778:
  7930                           
  7931                           ;usb_device.c: 905: }
  7932                           ;usb_device.c: 906: if(options & 0x02)
  7933  001E30  A233               	btfss	USBEnableEndpoint@options,1,c
  7934  001E32  D005               	goto	i2l2782
  7935                           
  7936                           ;usb_device.c: 907: {
  7937                           ;usb_device.c: 908: USBConfigureEndpoint(ep, 1);
  7938  001E34  0E01               	movlw	1
  7939  001E36  6E2B               	movwf	USBConfigureEndpoint@direction,c
  7940  001E38  5036               	movf	USBEnableEndpoint@ep,w,c
  7941  001E3A  EC7D  F00C         	call	_USBConfigureEndpoint
  7942  001E3E                     i2l2782:
  7943                           
  7944                           ;usb_device.c: 909: }
  7945                           ;usb_device.c: 917: p = (unsigned char*)(&UEP0+ep);
  7946  001E3E  5036               	movf	USBEnableEndpoint@ep,w,c
  7947  001E40  0D01               	mullw	1
  7948  001E42  0E53               	movlw	83
  7949  001E44  24F3               	addwf	prodl,w,c
  7950  001E46  6E34               	movwf	USBEnableEndpoint@p,c
  7951  001E48  0E0F               	movlw	15
  7952  001E4A  20F4               	addwfc	prodh,w,c
  7953  001E4C  6E35               	movwf	USBEnableEndpoint@p+1,c
  7954                           
  7955                           ;usb_device.c: 919: *p = options;
  7956  001E4E  C034  FFD9         	movff	USBEnableEndpoint@p,fsr2l
  7957  001E52  C035  FFDA         	movff	USBEnableEndpoint@p+1,fsr2h
  7958  001E56  C033  FFDF         	movff	USBEnableEndpoint@options,indf2
  7959  001E5A  0012               	return		;funcret
  7960  001E5C                     __end_of_USBEnableEndpoint:
  7961                           	opt stack 0
  7962                           pclatu	equ	0xFFB
  7963                           pclath	equ	0xFFA
  7964                           tblptru	equ	0xFF8
  7965                           tblptrh	equ	0xFF7
  7966                           tblptrl	equ	0xFF6
  7967                           tablat	equ	0xFF5
  7968                           prodh	equ	0xFF4
  7969                           prodl	equ	0xFF3
  7970                           intcon	equ	0xFF2
  7971                           postinc0	equ	0xFEE
  7972                           fsr0h	equ	0xFEA
  7973                           fsr0l	equ	0xFE9
  7974                           wreg	equ	0xFE8
  7975                           indf1	equ	0xFE7
  7976                           fsr1h	equ	0xFE2
  7977                           fsr1l	equ	0xFE1
  7978                           indf2	equ	0xFDF
  7979                           postinc2	equ	0xFDE
  7980                           postdec2	equ	0xFDD
  7981                           plusw2	equ	0xFDB
  7982                           fsr2h	equ	0xFDA
  7983                           fsr2l	equ	0xFD9
  7984                           status	equ	0xFD8
  7985                           
  7986 ;; *************** function _USBConfigureEndpoint *****************
  7987 ;; Defined at:
  7988 ;;		line 1561 in file "CDCLib/usb_device.c"
  7989 ;; Parameters:    Size  Location     Type
  7990 ;;  EPNum           1    wreg     unsigned char 
  7991 ;;  direction       1    0[COMRAM] unsigned char 
  7992 ;; Auto vars:     Size  Location     Type
  7993 ;;  EPNum           1    5[COMRAM] unsigned char 
  7994 ;;  handle          2    6[COMRAM] PTR volatile struct __BD
  7995 ;;		 -> BDT(48), 
  7996 ;; Return value:  Size  Location     Type
  7997 ;;		None               void
  7998 ;; Registers used:
  7999 ;;		wreg, fsr2l, fsr2h, status,2, status,0, prodl, prodh
  8000 ;; Tracked objects:
  8001 ;;		On entry : 0/0
  8002 ;;		On exit  : 0/0
  8003 ;;		Unchanged: 0/0
  8004 ;; Data sizes:     COMRAM   BANK0   BANK1   BANK2
  8005 ;;      Params:         1       0       0       0
  8006 ;;      Locals:         3       0       0       0
  8007 ;;      Temps:          4       0       0       0
  8008 ;;      Totals:         8       0       0       0
  8009 ;;Total ram usage:        8 bytes
  8010 ;; Hardware stack levels used:    1
  8011 ;; This function calls:
  8012 ;;		Nothing
  8013 ;; This function is called by:
  8014 ;;		_USBEnableEndpoint
  8015 ;; This function uses a non-reentrant model
  8016 ;;
  8017                           
  8018                           	psect	text40
  8019  0018FA                     __ptext40:
  8020                           	opt stack 0
  8021  0018FA                     _USBConfigureEndpoint:
  8022                           	opt stack 21
  8023                           
  8024                           ;incstack = 0
  8025                           ;USBConfigureEndpoint@EPNum stored from wreg
  8026  0018FA  6E30               	movwf	USBConfigureEndpoint@EPNum,c
  8027                           
  8028                           ;usb_device.c: 1563: volatile BDT_ENTRY* handle;
  8029                           ;usb_device.c: 1567: handle = (volatile BDT_ENTRY*)&BDT[0];
  8030  0018FC  0E00               	movlw	0
  8031  0018FE  6E31               	movwf	USBConfigureEndpoint@handle,c
  8032  001900  0E02               	movlw	2
  8033  001902  6E32               	movwf	USBConfigureEndpoint@handle+1,c
  8034                           
  8035                           ;usb_device.c: 1568: handle += (4*EPNum+2*direction+0u);
  8036  001904  502B               	movf	USBConfigureEndpoint@direction,w,c
  8037  001906  6E2C               	movwf	??_USBConfigureEndpoint& (0+255),c
  8038  001908  6A2D               	clrf	(??_USBConfigureEndpoint+1)& (0+255),c
  8039  00190A  90D8               	bcf	status,0,c
  8040  00190C  362C               	rlcf	??_USBConfigureEndpoint,f,c
  8041  00190E  362D               	rlcf	??_USBConfigureEndpoint+1,f,c
  8042  001910  5030               	movf	USBConfigureEndpoint@EPNum,w,c
  8043  001912  6E2E               	movwf	(??_USBConfigureEndpoint+2)& (0+255),c
  8044  001914  6A2F               	clrf	(??_USBConfigureEndpoint+3)& (0+255),c
  8045  001916  90D8               	bcf	status,0,c
  8046  001918  362E               	rlcf	??_USBConfigureEndpoint+2,f,c
  8047  00191A  362F               	rlcf	??_USBConfigureEndpoint+3,f,c
  8048  00191C  90D8               	bcf	status,0,c
  8049  00191E  362E               	rlcf	??_USBConfigureEndpoint+2,f,c
  8050  001920  362F               	rlcf	??_USBConfigureEndpoint+3,f,c
  8051  001922  502C               	movf	??_USBConfigureEndpoint,w,c
  8052  001924  262E               	addwf	??_USBConfigureEndpoint+2,f,c
  8053  001926  502D               	movf	??_USBConfigureEndpoint+1,w,c
  8054  001928  222F               	addwfc	??_USBConfigureEndpoint+3,f,c
  8055  00192A  90D8               	bcf	status,0,c
  8056  00192C  362E               	rlcf	??_USBConfigureEndpoint+2,f,c
  8057  00192E  362F               	rlcf	??_USBConfigureEndpoint+3,f,c
  8058  001930  90D8               	bcf	status,0,c
  8059  001932  362E               	rlcf	??_USBConfigureEndpoint+2,f,c
  8060  001934  362F               	rlcf	??_USBConfigureEndpoint+3,f,c
  8061  001936  502E               	movf	??_USBConfigureEndpoint+2,w,c
  8062  001938  2631               	addwf	USBConfigureEndpoint@handle,f,c
  8063  00193A  502F               	movf	??_USBConfigureEndpoint+3,w,c
  8064  00193C  2232               	addwfc	USBConfigureEndpoint@handle+1,f,c
  8065                           
  8066                           ;usb_device.c: 1570: handle->STAT.UOWN = 0;
  8067  00193E  C031  FFD9         	movff	USBConfigureEndpoint@handle,fsr2l
  8068  001942  C032  FFDA         	movff	USBConfigureEndpoint@handle+1,fsr2h
  8069  001946  9EDF               	bcf	indf2,7,c
  8070                           
  8071                           ;usb_device.c: 1575: if(direction == 0)
  8072  001948  502B               	movf	USBConfigureEndpoint@direction,w,c
  8073  00194A  A4D8               	btfss	status,2,c
  8074  00194C  D007               	goto	i2l2768
  8075                           
  8076                           ;usb_device.c: 1576: {
  8077                           ;usb_device.c: 1577: pBDTEntryOut[EPNum] = handle;
  8078  00194E  5030               	movf	USBConfigureEndpoint@EPNum,w,c
  8079  001950  0D02               	mullw	2
  8080  001952  0ECA               	movlw	low _pBDTEntryOut
  8081  001954  24F3               	addwf	prodl,w,c
  8082  001956  6ED9               	movwf	fsr2l,c
  8083  001958  0E00               	movlw	high _pBDTEntryOut
  8084  00195A  D006               	goto	L13
  8085  00195C                     i2l2768:
  8086                           
  8087                           ;usb_device.c: 1579: else
  8088                           ;usb_device.c: 1580: {
  8089                           ;usb_device.c: 1581: pBDTEntryIn[EPNum] = handle;
  8090  00195C  5030               	movf	USBConfigureEndpoint@EPNum,w,c
  8091  00195E  0D02               	mullw	2
  8092  001960  0E0F               	movlw	low _pBDTEntryIn
  8093  001962  24F3               	addwf	prodl,w,c
  8094  001964  6ED9               	movwf	fsr2l,c
  8095  001966  0E00               	movlw	high _pBDTEntryIn
  8096  001968                     L13:
  8097  001968  20F4               	addwfc	prodh,w,c
  8098  00196A  6EDA               	movwf	fsr2h,c
  8099  00196C  C031  FFDE         	movff	USBConfigureEndpoint@handle,postinc2
  8100  001970  C032  FFDD         	movff	USBConfigureEndpoint@handle+1,postdec2
  8101                           
  8102                           ;usb_device.c: 1582: }
  8103                           ;usb_device.c: 1585: handle->STAT.DTS = 0;
  8104  001974  C031  FFD9         	movff	USBConfigureEndpoint@handle,fsr2l
  8105  001978  C032  FFDA         	movff	USBConfigureEndpoint@handle+1,fsr2h
  8106  00197C  9CDF               	bcf	indf2,6,c
  8107                           
  8108                           ;usb_device.c: 1586: (handle+1)->STAT.DTS = 1;
  8109  00197E  EE20 F004          	lfsr	2,4
  8110  001982  5031               	movf	USBConfigureEndpoint@handle,w,c
  8111  001984  26D9               	addwf	fsr2l,f,c
  8112  001986  5032               	movf	USBConfigureEndpoint@handle+1,w,c
  8113  001988  22DA               	addwfc	fsr2h,f,c
  8114  00198A  8CDF               	bsf	indf2,6,c
  8115  00198C  0012               	return		;funcret
  8116  00198E                     __end_of_USBConfigureEndpoint:
  8117                           	opt stack 0
  8118                           pclatu	equ	0xFFB
  8119                           pclath	equ	0xFFA
  8120                           tblptru	equ	0xFF8
  8121                           tblptrh	equ	0xFF7
  8122                           tblptrl	equ	0xFF6
  8123                           tablat	equ	0xFF5
  8124                           prodh	equ	0xFF4
  8125                           prodl	equ	0xFF3
  8126                           intcon	equ	0xFF2
  8127                           postinc0	equ	0xFEE
  8128                           fsr0h	equ	0xFEA
  8129                           fsr0l	equ	0xFE9
  8130                           wreg	equ	0xFE8
  8131                           indf1	equ	0xFE7
  8132                           fsr1h	equ	0xFE2
  8133                           fsr1l	equ	0xFE1
  8134                           indf2	equ	0xFDF
  8135                           postinc2	equ	0xFDE
  8136                           postdec2	equ	0xFDD
  8137                           plusw2	equ	0xFDB
  8138                           fsr2h	equ	0xFDA
  8139                           fsr2l	equ	0xFD9
  8140                           status	equ	0xFD8
  8141                           
  8142 ;; *************** function _USBCheckCDCRequest *****************
  8143 ;; Defined at:
  8144 ;;		line 147 in file "CDCLib/usb_device_cdc.c"
  8145 ;; Parameters:    Size  Location     Type
  8146 ;;		None
  8147 ;; Auto vars:     Size  Location     Type
  8148 ;;		None
  8149 ;; Return value:  Size  Location     Type
  8150 ;;		None               void
  8151 ;; Registers used:
  8152 ;;		wreg, status,2, status,0
  8153 ;; Tracked objects:
  8154 ;;		On entry : 0/0
  8155 ;;		On exit  : 0/0
  8156 ;;		Unchanged: 0/0
  8157 ;; Data sizes:     COMRAM   BANK0   BANK1   BANK2
  8158 ;;      Params:         0       0       0       0
  8159 ;;      Locals:         0       0       0       0
  8160 ;;      Temps:          0       0       0       0
  8161 ;;      Totals:         0       0       0       0
  8162 ;;Total ram usage:        0 bytes
  8163 ;; Hardware stack levels used:    1
  8164 ;; This function calls:
  8165 ;;		Nothing
  8166 ;; This function is called by:
  8167 ;;		_USER_USB_CALLBACK_EVENT_HANDLER
  8168 ;; This function uses a non-reentrant model
  8169 ;;
  8170                           
  8171                           	psect	text41
  8172  001664                     __ptext41:
  8173                           	opt stack 0
  8174  001664                     _USBCheckCDCRequest:
  8175                           	opt stack 24
  8176                           
  8177                           ;usb_device_cdc.c: 152: if(SetupPkt.Recipient != (0x01)) return;
  8178                           
  8179                           ;incstack = 0
  8180  001664  0102               	movlb	2	; () banked
  8181  001666  5130               	movf	48,w,b	;volatile
  8182  001668  0B1F               	andlw	31
  8183  00166A  06E8               	decf	wreg,f,c
  8184  00166C  A4D8               	btfss	status,2,c
  8185  00166E  0012               	return	
  8186                           
  8187                           ; BSR set to: 2
  8188                           ;usb_device_cdc.c: 157: if(SetupPkt.RequestType != (0x20>>5)) return;
  8189                           
  8190                           ; BSR set to: 2
  8191                           
  8192                           ; BSR set to: 2
  8193  001670  0102               	movlb	2	; () banked
  8194  001672  3930               	swapf	48,w,b	;volatile
  8195  001674  32E8               	rrcf	wreg,f,c
  8196  001676  0B03               	andlw	3
  8197  001678  06E8               	decf	wreg,f,c
  8198  00167A  A4D8               	btfss	status,2,c
  8199  00167C  0012               	return	
  8200                           
  8201                           ; BSR set to: 2
  8202                           ;usb_device_cdc.c: 163: if((SetupPkt.bIntfID != 0x0)&&
  8203                           ;usb_device_cdc.c: 164: (SetupPkt.bIntfID != 0x01)) return;
  8204                           
  8205                           ; BSR set to: 2
  8206                           
  8207                           ; BSR set to: 2
  8208  00167E  0102               	movlb	2	; () banked
  8209  001680  5134               	movf	52,w,b	;volatile
  8210  001682  B4D8               	btfsc	status,2,c
  8211  001684  D033               	goto	i2l2866
  8212                           
  8213                           ; BSR set to: 2
  8214  001686  0102               	movlb	2	; () banked
  8215  001688  0534               	decf	52,w,b	;volatile
  8216  00168A  A4D8               	btfss	status,2,c
  8217  00168C  0012               	return	
  8218  00168E  D02E               	goto	i2l2866
  8219  001690                     i2l2842:
  8220                           
  8221                           ; BSR set to: 2
  8222                           ;usb_device_cdc.c: 171: inPipes[0].pSrc.bRam = (uint8_t*)&dummy_encapsulated_cmd_respons
      +                          e;
  8223  001690  0EED               	movlw	low _dummy_encapsulated_cmd_response
  8224  001692  6E09               	movwf	_inPipes,c	;volatile
  8225  001694  0E00               	movlw	high _dummy_encapsulated_cmd_response
  8226  001696  6E0A               	movwf	_inPipes+1,c	;volatile
  8227                           
  8228                           ; BSR set to: 2
  8229                           ;usb_device_cdc.c: 172: inPipes[0].wCount.Val = 0x08;
  8230  001698  0E00               	movlw	0
  8231  00169A  6E0E               	movwf	_inPipes+5,c	;volatile
  8232  00169C  0E08               	movlw	8
  8233  00169E  6E0D               	movwf	_inPipes+4,c	;volatile
  8234                           
  8235                           ; BSR set to: 2
  8236                           ;usb_device_cdc.c: 173: inPipes[0].info.bits.ctrl_trf_mem = 0x01;
  8237  0016A0  800C               	bsf	_inPipes+3,0,c	;volatile
  8238                           
  8239                           ; BSR set to: 2
  8240                           ;usb_device_cdc.c: 174: inPipes[0].info.bits.busy = 1;
  8241  0016A2  8E0C               	bsf	_inPipes+3,7,c	;volatile
  8242                           
  8243                           ;usb_device_cdc.c: 175: break;
  8244  0016A4  0012               	return	
  8245  0016A6                     i2l2850:
  8246                           
  8247                           ; BSR set to: 2
  8248                           ;usb_device_cdc.c: 178: inPipes[0].pSrc.bRam = (uint8_t*)&dummy_encapsulated_cmd_respons
      +                          e;
  8249  0016A6  0EED               	movlw	low _dummy_encapsulated_cmd_response
  8250  0016A8  6E09               	movwf	_inPipes,c	;volatile
  8251  0016AA  0E00               	movlw	high _dummy_encapsulated_cmd_response
  8252  0016AC  6E0A               	movwf	_inPipes+1,c	;volatile
  8253                           
  8254                           ; BSR set to: 2
  8255                           ;usb_device_cdc.c: 179: inPipes[0].info.bits.busy = 1;
  8256  0016AE  8E0C               	bsf	_inPipes+3,7,c	;volatile
  8257                           
  8258                           ;usb_device_cdc.c: 180: break;
  8259  0016B0  0012               	return	
  8260  0016B2                     i2l478:
  8261                           
  8262                           ; BSR set to: 2
  8263                           ;usb_device_cdc.c: 185: outPipes[0].wCount.Val = SetupPkt.wLength;
  8264  0016B2  C236 F005          	movff	566,_outPipes+4	;volatile
  8265  0016B6  C237 F006          	movff	567,_outPipes+5	;volatile
  8266                           
  8267                           ; BSR set to: 2
  8268                           ;usb_device_cdc.c: 186: outPipes[0].pDst.bRam = (uint8_t*)&line_coding._byte[0];
  8269  0016BA  0EF5               	movlw	low _line_coding
  8270  0016BC  6E01               	movwf	_outPipes,c	;volatile
  8271  0016BE  0E00               	movlw	high _line_coding
  8272  0016C0  6E02               	movwf	_outPipes+1,c	;volatile
  8273                           
  8274                           ;usb_device_cdc.c: 187: outPipes[0].pFunc = (0);
  8275  0016C2  0E00               	movlw	0
  8276  0016C4  6E07               	movwf	_outPipes+6,c	;volatile
  8277  0016C6  0E00               	movlw	0
  8278  0016C8  6E08               	movwf	_outPipes+7,c	;volatile
  8279                           
  8280                           ; BSR set to: 2
  8281                           ;usb_device_cdc.c: 188: outPipes[0].info.bits.busy = 1;
  8282  0016CA  8E04               	bsf	_outPipes+3,7,c	;volatile
  8283                           
  8284                           ;usb_device_cdc.c: 189: break;
  8285  0016CC  0012               	return	
  8286  0016CE                     i2l2858:
  8287                           
  8288                           ; BSR set to: 2
  8289                           ;usb_device_cdc.c: 192: { inPipes[0].pSrc.bRam = (uint8_t*)&line_coding; inPipes[0].wCou
      +                          nt.Val = 0x07; inPipes[0].info.Val = 0x40 | 0x80 | 0x01; };
  8290  0016CE  0EF5               	movlw	low _line_coding
  8291  0016D0  6E09               	movwf	_inPipes,c	;volatile
  8292  0016D2  0E00               	movlw	high _line_coding
  8293  0016D4  6E0A               	movwf	_inPipes+1,c	;volatile
  8294                           
  8295                           ; BSR set to: 2
  8296  0016D6  0E00               	movlw	0
  8297  0016D8  6E0E               	movwf	_inPipes+5,c	;volatile
  8298  0016DA  0E07               	movlw	7
  8299  0016DC  6E0D               	movwf	_inPipes+4,c	;volatile
  8300                           
  8301                           ; BSR set to: 2
  8302  0016DE  0EC1               	movlw	193
  8303  0016E0  6E0C               	movwf	_inPipes+3,c	;volatile
  8304                           
  8305                           ;usb_device_cdc.c: 196: break;
  8306  0016E2  0012               	return	
  8307  0016E4                     i2l480:
  8308                           
  8309                           ; BSR set to: 2
  8310                           ;usb_device_cdc.c: 199: control_signal_bitmap._byte = (uint8_t)SetupPkt.wValue;
  8311  0016E4  C232 F0EC          	movff	562,_control_signal_bitmap	;volatile
  8312                           
  8313                           ;usb_device_cdc.c: 231: inPipes[0].info.bits.busy = 1;
  8314  0016E8  8E0C               	bsf	_inPipes+3,7,c	;volatile
  8315                           
  8316                           ; BSR set to: 2
  8317                           ;usb_device_cdc.c: 258: }
  8318                           
  8319                           ; BSR set to: 2
  8320                           ;usb_device_cdc.c: 257: break;
  8321                           
  8322                           ;usb_device_cdc.c: 256: default:
  8323                           
  8324                           ;usb_device_cdc.c: 232: break;
  8325  0016EA  0012               	return	
  8326  0016EC                     i2l2866:
  8327                           
  8328                           ; BSR set to: 2
  8329  0016EC  0102               	movlb	2	; () banked
  8330  0016EE  5131               	movf	49,w,b	;volatile
  8331                           
  8332                           ; Switch size 1, requested type "space"
  8333                           ; Number of cases is 5, Range of values is 0 to 34
  8334                           ; switch strategies available:
  8335                           ; Name         Instructions Cycles
  8336                           ; simple_byte           16     9 (average)
  8337                           ;	Chosen strategy is simple_byte
  8338  0016F0  0A00               	xorlw	0	; case 0
  8339  0016F2  B4D8               	btfsc	status,2,c
  8340  0016F4  D7CD               	goto	i2l2842
  8341  0016F6  0A01               	xorlw	1	; case 1
  8342  0016F8  B4D8               	btfsc	status,2,c
  8343  0016FA  D7D5               	goto	i2l2850
  8344  0016FC  0A21               	xorlw	33	; case 32
  8345  0016FE  B4D8               	btfsc	status,2,c
  8346  001700  D7D8               	goto	i2l478
  8347  001702  0A01               	xorlw	1	; case 33
  8348  001704  B4D8               	btfsc	status,2,c
  8349  001706  D7E3               	goto	i2l2858
  8350  001708  0A03               	xorlw	3	; case 34
  8351  00170A  A4D8               	btfss	status,2,c
  8352  00170C  0012               	return	
  8353  00170E  D7EA               	goto	i2l480
  8354  001710                     __end_of_USBCheckCDCRequest:
  8355                           	opt stack 0
  8356                           pclatu	equ	0xFFB
  8357                           pclath	equ	0xFFA
  8358                           tblptru	equ	0xFF8
  8359                           tblptrh	equ	0xFF7
  8360                           tblptrl	equ	0xFF6
  8361                           tablat	equ	0xFF5
  8362                           prodh	equ	0xFF4
  8363                           prodl	equ	0xFF3
  8364                           intcon	equ	0xFF2
  8365                           postinc0	equ	0xFEE
  8366                           fsr0h	equ	0xFEA
  8367                           fsr0l	equ	0xFE9
  8368                           wreg	equ	0xFE8
  8369                           indf1	equ	0xFE7
  8370                           fsr1h	equ	0xFE2
  8371                           fsr1l	equ	0xFE1
  8372                           indf2	equ	0xFDF
  8373                           postinc2	equ	0xFDE
  8374                           postdec2	equ	0xFDD
  8375                           plusw2	equ	0xFDB
  8376                           fsr2h	equ	0xFDA
  8377                           fsr2l	equ	0xFD9
  8378                           status	equ	0xFD8
  8379                           
  8380 ;; *************** function _USBCtrlTrfOutHandler *****************
  8381 ;; Defined at:
  8382 ;;		line 2555 in file "CDCLib/usb_device.c"
  8383 ;; Parameters:    Size  Location     Type
  8384 ;;		None
  8385 ;; Auto vars:     Size  Location     Type
  8386 ;;		None
  8387 ;; Return value:  Size  Location     Type
  8388 ;;		None               void
  8389 ;; Registers used:
  8390 ;;		wreg, fsr1l, fsr1h, fsr2l, fsr2h, status,2, status,0, prodl, prodh, cstack
  8391 ;; Tracked objects:
  8392 ;;		On entry : 0/0
  8393 ;;		On exit  : 0/0
  8394 ;;		Unchanged: 0/0
  8395 ;; Data sizes:     COMRAM   BANK0   BANK1   BANK2
  8396 ;;      Params:         0       0       0       0
  8397 ;;      Locals:         0       0       0       0
  8398 ;;      Temps:          0       0       0       0
  8399 ;;      Totals:         0       0       0       0
  8400 ;;Total ram usage:        0 bytes
  8401 ;; Hardware stack levels used:    1
  8402 ;; Hardware stack levels required when called:    2
  8403 ;; This function calls:
  8404 ;;		_USBCtrlTrfRxService
  8405 ;; This function is called by:
  8406 ;;		_USBCtrlEPService
  8407 ;; This function uses a non-reentrant model
  8408 ;;
  8409                           
  8410                           	psect	text42
  8411  001CEA                     __ptext42:
  8412                           	opt stack 0
  8413  001CEA                     _USBCtrlTrfOutHandler:
  8414                           	opt stack 22
  8415                           
  8416                           ;usb_device.c: 2557: if(controlTransferState == 2)
  8417                           
  8418                           ; BSR set to: 2
  8419                           ;incstack = 0
  8420  001CEA  0E02               	movlw	2
  8421  001CEC  1826               	xorwf	_controlTransferState,w,c	;volatile
  8422  001CEE  A4D8               	btfss	status,2,c
  8423  001CF0  D003               	goto	i2l3406
  8424                           
  8425                           ;usb_device.c: 2558: {
  8426                           ;usb_device.c: 2559: USBCtrlTrfRxService();
  8427  001CF2  EC69  F007         	call	_USBCtrlTrfRxService	;wreg free
  8428                           
  8429                           ;usb_device.c: 2560: }
  8430  001CF6  0012               	return	
  8431  001CF8                     i2l3406:
  8432                           
  8433                           ;usb_device.c: 2561: else
  8434                           ;usb_device.c: 2562: {
  8435                           ;usb_device.c: 2565: controlTransferState = 0;
  8436  001CF8  0E00               	movlw	0
  8437  001CFA  6E26               	movwf	_controlTransferState,c	;volatile
  8438                           
  8439                           ;usb_device.c: 2572: if(BothEP0OutUOWNsSet == 0)
  8440  001CFC  501B               	movf	_BothEP0OutUOWNsSet,w,c	;volatile
  8441  001CFE  A4D8               	btfss	status,2,c
  8442  001D00  D01F               	goto	i2l3414
  8443                           
  8444                           ;usb_device.c: 2573: {
  8445                           ;usb_device.c: 2574: pBDTEntryEP0OutNext->CNT = 8;
  8446  001D02  EE20 F001          	lfsr	2,1
  8447  001D06  5019               	movf	_pBDTEntryEP0OutNext,w,c
  8448  001D08  26D9               	addwf	fsr2l,f,c
  8449  001D0A  501A               	movf	_pBDTEntryEP0OutNext+1,w,c
  8450  001D0C  22DA               	addwfc	fsr2h,f,c
  8451  001D0E  0E08               	movlw	8
  8452  001D10  6EDF               	movwf	indf2,c
  8453                           
  8454                           ;usb_device.c: 2575: pBDTEntryEP0OutNext->ADR = ((uint16_t)(&SetupPkt));
  8455  001D12  EE20 F002          	lfsr	2,2
  8456  001D16  5019               	movf	_pBDTEntryEP0OutNext,w,c
  8457  001D18  26D9               	addwf	fsr2l,f,c
  8458  001D1A  501A               	movf	_pBDTEntryEP0OutNext+1,w,c
  8459  001D1C  22DA               	addwfc	fsr2h,f,c
  8460  001D1E  0E30               	movlw	48
  8461  001D20  6EDE               	movwf	postinc2,c
  8462  001D22  0E02               	movlw	2
  8463  001D24  6EDD               	movwf	postdec2,c
  8464                           
  8465                           ;usb_device.c: 2576: pBDTEntryEP0OutNext->STAT.Val = 0x00|(0x08 & 0x08)|0x04;
  8466  001D26  C019  FFD9         	movff	_pBDTEntryEP0OutNext,fsr2l
  8467  001D2A  C01A  FFDA         	movff	_pBDTEntryEP0OutNext+1,fsr2h
  8468  001D2E  0E0C               	movlw	12
  8469  001D30  6EDF               	movwf	indf2,c
  8470                           
  8471                           ;usb_device.c: 2577: pBDTEntryEP0OutNext->STAT.Val |= 0x80;
  8472  001D32  C019  FFD9         	movff	_pBDTEntryEP0OutNext,fsr2l
  8473  001D36  C01A  FFDA         	movff	_pBDTEntryEP0OutNext+1,fsr2h
  8474  001D3A  0E00               	movlw	0
  8475  001D3C  8EDB               	bsf	plusw2,7,c
  8476                           
  8477                           ;usb_device.c: 2578: }
  8478  001D3E  0012               	return	
  8479  001D40                     i2l3414:
  8480                           
  8481                           ;usb_device.c: 2579: else
  8482                           ;usb_device.c: 2580: {
  8483                           ;usb_device.c: 2581: BothEP0OutUOWNsSet = 0;
  8484  001D40  0E00               	movlw	0
  8485  001D42  6E1B               	movwf	_BothEP0OutUOWNsSet,c	;volatile
  8486  001D44  0012               	return	
  8487  001D46                     __end_of_USBCtrlTrfOutHandler:
  8488                           	opt stack 0
  8489                           pclatu	equ	0xFFB
  8490                           pclath	equ	0xFFA
  8491                           tblptru	equ	0xFF8
  8492                           tblptrh	equ	0xFF7
  8493                           tblptrl	equ	0xFF6
  8494                           tablat	equ	0xFF5
  8495                           prodh	equ	0xFF4
  8496                           prodl	equ	0xFF3
  8497                           intcon	equ	0xFF2
  8498                           postinc0	equ	0xFEE
  8499                           fsr0h	equ	0xFEA
  8500                           fsr0l	equ	0xFE9
  8501                           wreg	equ	0xFE8
  8502                           indf1	equ	0xFE7
  8503                           fsr1h	equ	0xFE2
  8504                           fsr1l	equ	0xFE1
  8505                           indf2	equ	0xFDF
  8506                           postinc2	equ	0xFDE
  8507                           postdec2	equ	0xFDD
  8508                           plusw2	equ	0xFDB
  8509                           fsr2h	equ	0xFDA
  8510                           fsr2l	equ	0xFD9
  8511                           status	equ	0xFD8
  8512                           
  8513 ;; *************** function _USBCtrlTrfRxService *****************
  8514 ;; Defined at:
  8515 ;;		line 1870 in file "CDCLib/usb_device.c"
  8516 ;; Parameters:    Size  Location     Type
  8517 ;;		None
  8518 ;; Auto vars:     Size  Location     Type
  8519 ;;  byteToRead      1    1[COMRAM] unsigned char 
  8520 ;;  i               1    0[COMRAM] unsigned char 
  8521 ;; Return value:  Size  Location     Type
  8522 ;;		None               void
  8523 ;; Registers used:
  8524 ;;		wreg, fsr1l, fsr1h, fsr2l, fsr2h, status,2, status,0, prodl, prodh, cstack
  8525 ;; Tracked objects:
  8526 ;;		On entry : 0/0
  8527 ;;		On exit  : 0/0
  8528 ;;		Unchanged: 0/0
  8529 ;; Data sizes:     COMRAM   BANK0   BANK1   BANK2
  8530 ;;      Params:         0       0       0       0
  8531 ;;      Locals:         2       0       0       0
  8532 ;;      Temps:          0       0       0       0
  8533 ;;      Totals:         2       0       0       0
  8534 ;;Total ram usage:        2 bytes
  8535 ;; Hardware stack levels used:    1
  8536 ;; Hardware stack levels required when called:    1
  8537 ;; This function calls:
  8538 ;;		_USBCtrlEPAllowStatusStage
  8539 ;; This function is called by:
  8540 ;;		_USBCtrlTrfOutHandler
  8541 ;; This function uses a non-reentrant model
  8542 ;;
  8543                           
  8544                           	psect	text43
  8545  000ED2                     __ptext43:
  8546                           	opt stack 0
  8547  000ED2                     _USBCtrlTrfRxService:
  8548                           	opt stack 22
  8549                           
  8550                           ;usb_device.c: 1872: uint8_t byteToRead;
  8551                           ;usb_device.c: 1873: uint8_t i;
  8552                           ;usb_device.c: 1877: byteToRead = pBDTEntryEP0OutCurrent->CNT;
  8553                           
  8554                           ;incstack = 0
  8555  000ED2  EE20 F001          	lfsr	2,1
  8556  000ED6  5017               	movf	_pBDTEntryEP0OutCurrent,w,c
  8557  000ED8  26D9               	addwf	fsr2l,f,c
  8558  000EDA  5018               	movf	_pBDTEntryEP0OutCurrent+1,w,c
  8559  000EDC  22DA               	addwfc	fsr2h,f,c
  8560  000EDE  50DF               	movf	indf2,w,c
  8561  000EE0  6E2C               	movwf	USBCtrlTrfRxService@byteToRead,c
  8562                           
  8563                           ;usb_device.c: 1883: if(byteToRead > outPipes[0].wCount.Val)
  8564  000EE2  502C               	movf	USBCtrlTrfRxService@byteToRead,w,c
  8565  000EE4  5C05               	subwf	_outPipes+4,w,c	;volatile
  8566  000EE6  0E00               	movlw	0
  8567  000EE8  5806               	subwfb	_outPipes+5,w,c	;volatile
  8568  000EEA  A0D8               	btfss	status,0,c
  8569                           
  8570                           ;usb_device.c: 1884: {
  8571                           ;usb_device.c: 1885: byteToRead = outPipes[0].wCount.Val;
  8572  000EEC  C005  F02C         	movff	_outPipes+4,USBCtrlTrfRxService@byteToRead	;volatile
  8573                           
  8574                           ;usb_device.c: 1886: }
  8575                           ;usb_device.c: 1888: outPipes[0].wCount.Val -= byteToRead;
  8576  000EF0  502C               	movf	USBCtrlTrfRxService@byteToRead,w,c
  8577  000EF2  5E05               	subwf	_outPipes+4,f,c	;volatile
  8578  000EF4  0E00               	movlw	0
  8579  000EF6  5A06               	subwfb	_outPipes+5,f,c	;volatile
  8580                           
  8581                           ;usb_device.c: 1892: for(i=0;i<byteToRead;i++)
  8582  000EF8  0E00               	movlw	0
  8583  000EFA  6E2B               	movwf	USBCtrlTrfRxService@i,c
  8584  000EFC  D011               	goto	i2l3262
  8585  000EFE                     i2l3256:
  8586                           
  8587                           ;usb_device.c: 1893: {
  8588                           ;usb_device.c: 1894: *outPipes[0].pDst.bRam++ = CtrlTrfData[i];
  8589  000EFE  502B               	movf	USBCtrlTrfRxService@i,w,c
  8590  000F00  0D01               	mullw	1
  8591  000F02  0E38               	movlw	56
  8592  000F04  24F3               	addwf	prodl,w,c
  8593  000F06  6ED9               	movwf	fsr2l,c
  8594  000F08  0E02               	movlw	2
  8595  000F0A  20F4               	addwfc	prodh,w,c
  8596  000F0C  6EDA               	movwf	fsr2h,c
  8597  000F0E  C001  FFE1         	movff	_outPipes,fsr1l	;volatile
  8598  000F12  C002  FFE2         	movff	_outPipes+1,fsr1h	;volatile
  8599  000F16  CFDF FFE7          	movff	indf2,indf1
  8600  000F1A  4A01               	infsnz	_outPipes,f,c	;volatile
  8601  000F1C  2A02               	incf	_outPipes+1,f,c	;volatile
  8602  000F1E  2A2B               	incf	USBCtrlTrfRxService@i,f,c
  8603  000F20                     i2l3262:
  8604  000F20  502C               	movf	USBCtrlTrfRxService@byteToRead,w,c
  8605  000F22  5C2B               	subwf	USBCtrlTrfRxService@i,w,c
  8606  000F24  A0D8               	btfss	status,0,c
  8607  000F26  D7EB               	goto	i2l3256
  8608                           
  8609                           ;usb_device.c: 1895: }
  8610                           ;usb_device.c: 1899: if(outPipes[0].wCount.Val > 0)
  8611  000F28  5005               	movf	_outPipes+4,w,c	;volatile
  8612  000F2A  1006               	iorwf	_outPipes+5,w,c	;volatile
  8613  000F2C  B4D8               	btfsc	status,2,c
  8614  000F2E  D032               	goto	i2l3278
  8615                           
  8616                           ;usb_device.c: 1900: {
  8617                           ;usb_device.c: 1901: pBDTEntryEP0OutNext->CNT = 8;
  8618  000F30  EE20 F001          	lfsr	2,1
  8619  000F34  5019               	movf	_pBDTEntryEP0OutNext,w,c
  8620  000F36  26D9               	addwf	fsr2l,f,c
  8621  000F38  501A               	movf	_pBDTEntryEP0OutNext+1,w,c
  8622  000F3A  22DA               	addwfc	fsr2h,f,c
  8623  000F3C  0E08               	movlw	8
  8624  000F3E  6EDF               	movwf	indf2,c
  8625                           
  8626                           ;usb_device.c: 1902: pBDTEntryEP0OutNext->ADR = ((uint16_t)(&CtrlTrfData));
  8627  000F40  EE20 F002          	lfsr	2,2
  8628  000F44  5019               	movf	_pBDTEntryEP0OutNext,w,c
  8629  000F46  26D9               	addwf	fsr2l,f,c
  8630  000F48  501A               	movf	_pBDTEntryEP0OutNext+1,w,c
  8631  000F4A  22DA               	addwfc	fsr2h,f,c
  8632  000F4C  0E38               	movlw	56
  8633  000F4E  6EDE               	movwf	postinc2,c
  8634  000F50  0E02               	movlw	2
  8635  000F52  6EDD               	movwf	postdec2,c
  8636                           
  8637                           ;usb_device.c: 1903: if(pBDTEntryEP0OutCurrent->STAT.DTS == 0)
  8638  000F54  C017  FFD9         	movff	_pBDTEntryEP0OutCurrent,fsr2l
  8639  000F58  C018  FFDA         	movff	_pBDTEntryEP0OutCurrent+1,fsr2h
  8640  000F5C  BCDF               	btfsc	indf2,6,c
  8641  000F5E  D00D               	goto	i2l3274
  8642                           
  8643                           ;usb_device.c: 1904: {
  8644                           ;usb_device.c: 1905: pBDTEntryEP0OutNext->STAT.Val = 0x40|(0x08 & 0x08);
  8645  000F60  C019  FFD9         	movff	_pBDTEntryEP0OutNext,fsr2l
  8646  000F64  C01A  FFDA         	movff	_pBDTEntryEP0OutNext+1,fsr2h
  8647  000F68  0E48               	movlw	72
  8648  000F6A  6EDF               	movwf	indf2,c
  8649                           
  8650                           ;usb_device.c: 1906: pBDTEntryEP0OutNext->STAT.Val |= 0x80;
  8651  000F6C  C019  FFD9         	movff	_pBDTEntryEP0OutNext,fsr2l
  8652  000F70  C01A  FFDA         	movff	_pBDTEntryEP0OutNext+1,fsr2h
  8653  000F74  0E00               	movlw	0
  8654  000F76  8EDB               	bsf	plusw2,7,c
  8655                           
  8656                           ;usb_device.c: 1907: }
  8657  000F78  0012               	return	
  8658  000F7A                     i2l3274:
  8659                           
  8660                           ;usb_device.c: 1908: else
  8661                           ;usb_device.c: 1909: {
  8662                           ;usb_device.c: 1910: pBDTEntryEP0OutNext->STAT.Val = 0x00|(0x08 & 0x08);
  8663  000F7A  C019  FFD9         	movff	_pBDTEntryEP0OutNext,fsr2l
  8664  000F7E  C01A  FFDA         	movff	_pBDTEntryEP0OutNext+1,fsr2h
  8665  000F82  0E08               	movlw	8
  8666  000F84  6EDF               	movwf	indf2,c
  8667                           
  8668                           ;usb_device.c: 1911: pBDTEntryEP0OutNext->STAT.Val |= 0x80;
  8669  000F86  C019  FFD9         	movff	_pBDTEntryEP0OutNext,fsr2l
  8670  000F8A  C01A  FFDA         	movff	_pBDTEntryEP0OutNext+1,fsr2h
  8671  000F8E  0E00               	movlw	0
  8672  000F90  8EDB               	bsf	plusw2,7,c
  8673                           
  8674                           ;usb_device.c: 1912: }
  8675                           ;usb_device.c: 1913: }
  8676  000F92  0012               	return	
  8677  000F94                     i2l3278:
  8678                           
  8679                           ;usb_device.c: 1914: else
  8680                           ;usb_device.c: 1915: {
  8681                           ;usb_device.c: 1919: pBDTEntryEP0OutNext->CNT = 8;
  8682  000F94  EE20 F001          	lfsr	2,1
  8683  000F98  5019               	movf	_pBDTEntryEP0OutNext,w,c
  8684  000F9A  26D9               	addwf	fsr2l,f,c
  8685  000F9C  501A               	movf	_pBDTEntryEP0OutNext+1,w,c
  8686  000F9E  22DA               	addwfc	fsr2h,f,c
  8687  000FA0  0E08               	movlw	8
  8688  000FA2  6EDF               	movwf	indf2,c
  8689                           
  8690                           ;usb_device.c: 1920: pBDTEntryEP0OutNext->ADR = ((uint16_t)(&SetupPkt));
  8691  000FA4  EE20 F002          	lfsr	2,2
  8692  000FA8  5019               	movf	_pBDTEntryEP0OutNext,w,c
  8693  000FAA  26D9               	addwf	fsr2l,f,c
  8694  000FAC  501A               	movf	_pBDTEntryEP0OutNext+1,w,c
  8695  000FAE  22DA               	addwfc	fsr2h,f,c
  8696  000FB0  0E30               	movlw	48
  8697  000FB2  6EDE               	movwf	postinc2,c
  8698  000FB4  0E02               	movlw	2
  8699  000FB6  6EDD               	movwf	postdec2,c
  8700                           
  8701                           ;usb_device.c: 1924: pBDTEntryEP0OutNext->STAT.Val = 0x04;
  8702  000FB8  C019  FFD9         	movff	_pBDTEntryEP0OutNext,fsr2l
  8703  000FBC  C01A  FFDA         	movff	_pBDTEntryEP0OutNext+1,fsr2h
  8704  000FC0  0E04               	movlw	4
  8705  000FC2  6EDF               	movwf	indf2,c
  8706                           
  8707                           ;usb_device.c: 1925: pBDTEntryEP0OutNext->STAT.Val |= 0x80;
  8708  000FC4  C019  FFD9         	movff	_pBDTEntryEP0OutNext,fsr2l
  8709  000FC8  C01A  FFDA         	movff	_pBDTEntryEP0OutNext+1,fsr2h
  8710  000FCC  0E00               	movlw	0
  8711  000FCE  8EDB               	bsf	plusw2,7,c
  8712                           
  8713                           ;usb_device.c: 1944: }
  8714                           ;usb_device.c: 1945: outPipes[0].info.bits.busy = 0;
  8715                           
  8716                           ;usb_device.c: 1933: {
  8717                           ;usb_device.c: 1939: outPipes[0].pFunc();
  8718  000FD0  9E04               	bcf	_outPipes+3,7,c	;volatile
  8719                           
  8720                           ;usb_device.c: 1959: if(USBDeferStatusStagePacket == 0)
  8721  000FD2  501E               	movf	_USBDeferStatusStagePacket,w,c	;volatile
  8722  000FD4  A4D8               	btfss	status,2,c
  8723  000FD6  0012               	return	
  8724                           
  8725                           ;usb_device.c: 1960: {
  8726                           ;usb_device.c: 1961: USBCtrlEPAllowStatusStage();
  8727  000FD8  EC17  F00A         	call	_USBCtrlEPAllowStatusStage	;wreg free
  8728  000FDC  0012               	return	
  8729  000FDE                     __end_of_USBCtrlTrfRxService:
  8730                           	opt stack 0
  8731                           pclatu	equ	0xFFB
  8732                           pclath	equ	0xFFA
  8733                           tblptru	equ	0xFF8
  8734                           tblptrh	equ	0xFF7
  8735                           tblptrl	equ	0xFF6
  8736                           tablat	equ	0xFF5
  8737                           prodh	equ	0xFF4
  8738                           prodl	equ	0xFF3
  8739                           intcon	equ	0xFF2
  8740                           postinc0	equ	0xFEE
  8741                           fsr0h	equ	0xFEA
  8742                           fsr0l	equ	0xFE9
  8743                           wreg	equ	0xFE8
  8744                           indf1	equ	0xFE7
  8745                           fsr1h	equ	0xFE2
  8746                           fsr1l	equ	0xFE1
  8747                           indf2	equ	0xFDF
  8748                           postinc2	equ	0xFDE
  8749                           postdec2	equ	0xFDD
  8750                           plusw2	equ	0xFDB
  8751                           fsr2h	equ	0xFDA
  8752                           fsr2l	equ	0xFD9
  8753                           status	equ	0xFD8
  8754                           
  8755 ;; *************** function _USBCtrlEPAllowStatusStage *****************
  8756 ;; Defined at:
  8757 ;;		line 1434 in file "CDCLib/usb_device.c"
  8758 ;; Parameters:    Size  Location     Type
  8759 ;;		None
  8760 ;; Auto vars:     Size  Location     Type
  8761 ;;		None
  8762 ;; Return value:  Size  Location     Type
  8763 ;;		None               void
  8764 ;; Registers used:
  8765 ;;		wreg, fsr2l, fsr2h, status,2, status,0
  8766 ;; Tracked objects:
  8767 ;;		On entry : 0/0
  8768 ;;		On exit  : 0/0
  8769 ;;		Unchanged: 0/0
  8770 ;; Data sizes:     COMRAM   BANK0   BANK1   BANK2
  8771 ;;      Params:         0       0       0       0
  8772 ;;      Locals:         0       0       0       0
  8773 ;;      Temps:          0       0       0       0
  8774 ;;      Totals:         0       0       0       0
  8775 ;;Total ram usage:        0 bytes
  8776 ;; Hardware stack levels used:    1
  8777 ;; This function calls:
  8778 ;;		Nothing
  8779 ;; This function is called by:
  8780 ;;		_USBDeviceTasks
  8781 ;;		_USBCtrlEPServiceComplete
  8782 ;;		_USBCtrlTrfRxService
  8783 ;; This function uses a non-reentrant model
  8784 ;;
  8785                           
  8786                           	psect	text44
  8787  00142E                     __ptext44:
  8788                           	opt stack 0
  8789  00142E                     _USBCtrlEPAllowStatusStage:
  8790                           	opt stack 22
  8791                           
  8792                           ;usb_device.c: 1441: if(USBStatusStageEnabledFlag1 == 0)
  8793                           
  8794                           ;incstack = 0
  8795  00142E  5020               	movf	_USBStatusStageEnabledFlag1,w,c	;volatile
  8796  001430  A4D8               	btfss	status,2,c
  8797  001432  0012               	return	
  8798                           
  8799                           ;usb_device.c: 1442: {
  8800                           ;usb_device.c: 1443: USBStatusStageEnabledFlag1 = 1;
  8801  001434  0E01               	movlw	1
  8802  001436  6E20               	movwf	_USBStatusStageEnabledFlag1,c	;volatile
  8803                           
  8804                           ;usb_device.c: 1444: if(USBStatusStageEnabledFlag2 == 0)
  8805  001438  5021               	movf	_USBStatusStageEnabledFlag2,w,c	;volatile
  8806  00143A  A4D8               	btfss	status,2,c
  8807  00143C  0012               	return	
  8808                           
  8809                           ;usb_device.c: 1445: {
  8810                           ;usb_device.c: 1446: USBStatusStageEnabledFlag2 = 1;
  8811  00143E  0E01               	movlw	1
  8812  001440  6E21               	movwf	_USBStatusStageEnabledFlag2,c	;volatile
  8813                           
  8814                           ;usb_device.c: 1450: if(controlTransferState == 2)
  8815  001442  0E02               	movlw	2
  8816  001444  1826               	xorwf	_controlTransferState,w,c	;volatile
  8817  001446  A4D8               	btfss	status,2,c
  8818  001448  D015               	goto	i2l2972
  8819                           
  8820                           ;usb_device.c: 1451: {
  8821                           ;usb_device.c: 1452: pBDTEntryIn[0]->CNT = 0;
  8822  00144A  EE20 F001          	lfsr	2,1
  8823  00144E  500F               	movf	_pBDTEntryIn,w,c
  8824  001450  26D9               	addwf	fsr2l,f,c
  8825  001452  5010               	movf	_pBDTEntryIn+1,w,c
  8826  001454  22DA               	addwfc	fsr2h,f,c
  8827  001456  0E00               	movlw	0
  8828  001458  6EDF               	movwf	indf2,c
  8829                           
  8830                           ;usb_device.c: 1453: pBDTEntryIn[0]->STAT.Val = 0x40|(0x08 & 0x08);
  8831  00145A  C00F  FFD9         	movff	_pBDTEntryIn,fsr2l
  8832  00145E  C010  FFDA         	movff	_pBDTEntryIn+1,fsr2h
  8833  001462  0E48               	movlw	72
  8834  001464  6EDF               	movwf	indf2,c
  8835                           
  8836                           ;usb_device.c: 1454: pBDTEntryIn[0]->STAT.Val |= 0x80;
  8837  001466  C00F  FFD9         	movff	_pBDTEntryIn,fsr2l
  8838  00146A  C010  FFDA         	movff	_pBDTEntryIn+1,fsr2h
  8839  00146E  0E00               	movlw	0
  8840  001470  8EDB               	bsf	plusw2,7,c
  8841                           
  8842                           ;usb_device.c: 1455: }
  8843  001472  0012               	return	
  8844  001474                     i2l2972:
  8845                           
  8846                           ;usb_device.c: 1456: else if(controlTransferState == 1)
  8847  001474  0426               	decf	_controlTransferState,w,c	;volatile
  8848  001476  A4D8               	btfss	status,2,c
  8849  001478  0012               	return	
  8850                           
  8851                           ;usb_device.c: 1457: {
  8852                           ;usb_device.c: 1458: BothEP0OutUOWNsSet = 0;
  8853  00147A  0E00               	movlw	0
  8854  00147C  6E1B               	movwf	_BothEP0OutUOWNsSet,c	;volatile
  8855                           
  8856                           ;usb_device.c: 1463: pBDTEntryEP0OutCurrent->CNT = 8;
  8857  00147E  EE20 F001          	lfsr	2,1
  8858  001482  5017               	movf	_pBDTEntryEP0OutCurrent,w,c
  8859  001484  26D9               	addwf	fsr2l,f,c
  8860  001486  5018               	movf	_pBDTEntryEP0OutCurrent+1,w,c
  8861  001488  22DA               	addwfc	fsr2h,f,c
  8862  00148A  0E08               	movlw	8
  8863  00148C  6EDF               	movwf	indf2,c
  8864                           
  8865                           ;usb_device.c: 1464: pBDTEntryEP0OutCurrent->ADR = ((uint16_t)(&SetupPkt));
  8866  00148E  EE20 F002          	lfsr	2,2
  8867  001492  5017               	movf	_pBDTEntryEP0OutCurrent,w,c
  8868  001494  26D9               	addwf	fsr2l,f,c
  8869  001496  5018               	movf	_pBDTEntryEP0OutCurrent+1,w,c
  8870  001498  22DA               	addwfc	fsr2h,f,c
  8871  00149A  0E30               	movlw	48
  8872  00149C  6EDE               	movwf	postinc2,c
  8873  00149E  0E02               	movlw	2
  8874  0014A0  6EDD               	movwf	postdec2,c
  8875                           
  8876                           ;usb_device.c: 1465: pBDTEntryEP0OutCurrent->STAT.Val = 0x04;
  8877  0014A2  C017  FFD9         	movff	_pBDTEntryEP0OutCurrent,fsr2l
  8878  0014A6  C018  FFDA         	movff	_pBDTEntryEP0OutCurrent+1,fsr2h
  8879  0014AA  0E04               	movlw	4
  8880  0014AC  6EDF               	movwf	indf2,c
  8881                           
  8882                           ;usb_device.c: 1466: pBDTEntryEP0OutCurrent->STAT.Val |= 0x80;
  8883  0014AE  C017  FFD9         	movff	_pBDTEntryEP0OutCurrent,fsr2l
  8884  0014B2  C018  FFDA         	movff	_pBDTEntryEP0OutCurrent+1,fsr2h
  8885  0014B6  0E00               	movlw	0
  8886  0014B8  8EDB               	bsf	plusw2,7,c
  8887                           
  8888                           ;usb_device.c: 1467: BothEP0OutUOWNsSet = 1;
  8889  0014BA  0E01               	movlw	1
  8890  0014BC  6E1B               	movwf	_BothEP0OutUOWNsSet,c	;volatile
  8891                           
  8892                           ;usb_device.c: 1471: pBDTEntryEP0OutNext->CNT = 8;
  8893  0014BE  EE20 F001          	lfsr	2,1
  8894  0014C2  5019               	movf	_pBDTEntryEP0OutNext,w,c
  8895  0014C4  26D9               	addwf	fsr2l,f,c
  8896  0014C6  501A               	movf	_pBDTEntryEP0OutNext+1,w,c
  8897  0014C8  22DA               	addwfc	fsr2h,f,c
  8898  0014CA  0E08               	movlw	8
  8899  0014CC  6EDF               	movwf	indf2,c
  8900                           
  8901                           ;usb_device.c: 1472: pBDTEntryEP0OutNext->ADR = ((uint16_t)(&SetupPkt));
  8902  0014CE  EE20 F002          	lfsr	2,2
  8903  0014D2  5019               	movf	_pBDTEntryEP0OutNext,w,c
  8904  0014D4  26D9               	addwf	fsr2l,f,c
  8905  0014D6  501A               	movf	_pBDTEntryEP0OutNext+1,w,c
  8906  0014D8  22DA               	addwfc	fsr2h,f,c
  8907  0014DA  0E30               	movlw	48
  8908  0014DC  6EDE               	movwf	postinc2,c
  8909  0014DE  0E02               	movlw	2
  8910  0014E0  6EDD               	movwf	postdec2,c
  8911                           
  8912                           ;usb_device.c: 1473: pBDTEntryEP0OutNext->STAT.Val = 0x80;
  8913  0014E2  C019  FFD9         	movff	_pBDTEntryEP0OutNext,fsr2l
  8914  0014E6  C01A  FFDA         	movff	_pBDTEntryEP0OutNext+1,fsr2h
  8915  0014EA  0E80               	movlw	128
  8916  0014EC  6EDF               	movwf	indf2,c
  8917  0014EE  0012               	return	
  8918  0014F0                     __end_of_USBCtrlEPAllowStatusStage:
  8919                           	opt stack 0
  8920                           pclatu	equ	0xFFB
  8921                           pclath	equ	0xFFA
  8922                           tblptru	equ	0xFF8
  8923                           tblptrh	equ	0xFF7
  8924                           tblptrl	equ	0xFF6
  8925                           tablat	equ	0xFF5
  8926                           prodh	equ	0xFF4
  8927                           prodl	equ	0xFF3
  8928                           intcon	equ	0xFF2
  8929                           postinc0	equ	0xFEE
  8930                           fsr0h	equ	0xFEA
  8931                           fsr0l	equ	0xFE9
  8932                           wreg	equ	0xFE8
  8933                           indf1	equ	0xFE7
  8934                           fsr1h	equ	0xFE2
  8935                           fsr1l	equ	0xFE1
  8936                           indf2	equ	0xFDF
  8937                           postinc2	equ	0xFDE
  8938                           postdec2	equ	0xFDD
  8939                           plusw2	equ	0xFDB
  8940                           fsr2h	equ	0xFDA
  8941                           fsr2l	equ	0xFD9
  8942                           status	equ	0xFD8
  8943                           
  8944 ;; *************** function _USBCtrlTrfInHandler *****************
  8945 ;; Defined at:
  8946 ;;		line 2609 in file "CDCLib/usb_device.c"
  8947 ;; Parameters:    Size  Location     Type
  8948 ;;		None
  8949 ;; Auto vars:     Size  Location     Type
  8950 ;;  lastDTS         1    1[COMRAM] unsigned char 
  8951 ;; Return value:  Size  Location     Type
  8952 ;;		None               void
  8953 ;; Registers used:
  8954 ;;		wreg, fsr1l, fsr1h, fsr2l, fsr2h, status,2, status,0, tblptrl, tblptrh, tblptru, cstack
  8955 ;; Tracked objects:
  8956 ;;		On entry : 0/0
  8957 ;;		On exit  : 0/0
  8958 ;;		Unchanged: 0/0
  8959 ;; Data sizes:     COMRAM   BANK0   BANK1   BANK2
  8960 ;;      Params:         0       0       0       0
  8961 ;;      Locals:         1       0       0       0
  8962 ;;      Temps:          0       0       0       0
  8963 ;;      Totals:         1       0       0       0
  8964 ;;Total ram usage:        1 bytes
  8965 ;; Hardware stack levels used:    1
  8966 ;; Hardware stack levels required when called:    1
  8967 ;; This function calls:
  8968 ;;		_USBCtrlTrfTxService
  8969 ;; This function is called by:
  8970 ;;		_USBCtrlEPService
  8971 ;; This function uses a non-reentrant model
  8972 ;;
  8973                           
  8974                           	psect	text45
  8975  0015AA                     __ptext45:
  8976                           	opt stack 0
  8977  0015AA                     _USBCtrlTrfInHandler:
  8978                           	opt stack 23
  8979                           
  8980                           ;usb_device.c: 2611: uint8_t lastDTS;
  8981                           ;usb_device.c: 2613: lastDTS = pBDTEntryIn[0]->STAT.DTS;
  8982                           
  8983                           ;incstack = 0
  8984  0015AA  C00F  FFD9         	movff	_pBDTEntryIn,fsr2l
  8985  0015AE  C010  FFDA         	movff	_pBDTEntryIn+1,fsr2h
  8986  0015B2  0E00               	movlw	0
  8987  0015B4  BCDF               	btfsc	indf2,6,c
  8988  0015B6  0E01               	movlw	1
  8989  0015B8  6E2C               	movwf	USBCtrlTrfInHandler@lastDTS,c
  8990                           
  8991                           ;usb_device.c: 2616: ((uint8_t_VAL*)&pBDTEntryIn[0])->Val ^= 0x0004;
  8992  0015BA  0E04               	movlw	4
  8993  0015BC  1A0F               	xorwf	_pBDTEntryIn,f,c
  8994                           
  8995                           ;usb_device.c: 2621: if(USBDeviceState == ADR_PENDING_STATE)
  8996  0015BE  0E08               	movlw	8
  8997  0015C0  181F               	xorwf	_USBDeviceState,w,c	;volatile
  8998  0015C2  A4D8               	btfss	status,2,c
  8999  0015C4  D00D               	goto	i2l3430
  9000                           
  9001                           ;usb_device.c: 2622: {
  9002                           ;usb_device.c: 2623: UADDR = (SetupPkt.bDevADR & 0x7F);
  9003  0015C6  0102               	movlb	2	; () banked
  9004  0015C8  5132               	movf	50,w,b	;volatile
  9005  0015CA  0B7F               	andlw	127
  9006  0015CC  010F               	movlb	15	; () banked
  9007  0015CE  6F5C               	movwf	92,b	;volatile
  9008                           
  9009                           ; BSR set to: 15
  9010                           ;usb_device.c: 2624: if(UADDR != 0u)
  9011  0015D0  010F               	movlb	15	; () banked
  9012  0015D2  515C               	movf	92,w,b	;volatile
  9013  0015D4  B4D8               	btfsc	status,2,c
  9014  0015D6  D002               	goto	i2l3428
  9015                           
  9016                           ; BSR set to: 15
  9017                           ;usb_device.c: 2625: {
  9018                           ;usb_device.c: 2626: USBDeviceState=ADDRESS_STATE;
  9019  0015D8  0E10               	movlw	16
  9020  0015DA  D001               	goto	L14
  9021  0015DC                     i2l3428:
  9022                           
  9023                           ; BSR set to: 15
  9024                           ;usb_device.c: 2628: else
  9025                           ;usb_device.c: 2629: {
  9026                           ;usb_device.c: 2630: USBDeviceState=DEFAULT_STATE;
  9027  0015DC  0E04               	movlw	4
  9028  0015DE                     L14:
  9029  0015DE  6E1F               	movwf	_USBDeviceState,c	;volatile
  9030  0015E0                     i2l3430:
  9031                           
  9032                           ;usb_device.c: 2631: }
  9033                           ;usb_device.c: 2632: }
  9034                           ;usb_device.c: 2635: if(controlTransferState == 1)
  9035  0015E0  0426               	decf	_controlTransferState,w,c	;volatile
  9036  0015E2  A4D8               	btfss	status,2,c
  9037  0015E4  D03A               	goto	i2l363
  9038                           
  9039                           ;usb_device.c: 2636: {
  9040                           ;usb_device.c: 2637: pBDTEntryIn[0]->ADR = ((uint16_t)(CtrlTrfData));
  9041  0015E6  EE20 F002          	lfsr	2,2
  9042  0015EA  500F               	movf	_pBDTEntryIn,w,c
  9043  0015EC  26D9               	addwf	fsr2l,f,c
  9044  0015EE  5010               	movf	_pBDTEntryIn+1,w,c
  9045  0015F0  22DA               	addwfc	fsr2h,f,c
  9046  0015F2  0E38               	movlw	56
  9047  0015F4  6EDE               	movwf	postinc2,c
  9048  0015F6  0E02               	movlw	2
  9049  0015F8  6EDD               	movwf	postdec2,c
  9050                           
  9051                           ;usb_device.c: 2638: USBCtrlTrfTxService();
  9052  0015FA  ECB0  F009         	call	_USBCtrlTrfTxService	;wreg free
  9053                           
  9054                           ;usb_device.c: 2644: if(shortPacketStatus == 2)
  9055  0015FE  0E02               	movlw	2
  9056  001600  1828               	xorwf	_shortPacketStatus,w,c	;volatile
  9057  001602  A4D8               	btfss	status,2,c
  9058  001604  D00D               	goto	i2l3442
  9059                           
  9060                           ;usb_device.c: 2645: {
  9061                           ;usb_device.c: 2648: pBDTEntryIn[0]->STAT.Val = 0x04;
  9062  001606  C00F  FFD9         	movff	_pBDTEntryIn,fsr2l
  9063  00160A  C010  FFDA         	movff	_pBDTEntryIn+1,fsr2h
  9064  00160E  0E04               	movlw	4
  9065  001610  6EDF               	movwf	indf2,c
  9066                           
  9067                           ;usb_device.c: 2649: pBDTEntryIn[0]->STAT.Val |= 0x80;
  9068  001612  C00F  FFD9         	movff	_pBDTEntryIn,fsr2l
  9069  001616  C010  FFDA         	movff	_pBDTEntryIn+1,fsr2h
  9070  00161A  0E00               	movlw	0
  9071  00161C  8EDB               	bsf	plusw2,7,c
  9072                           
  9073                           ;usb_device.c: 2650: }
  9074  00161E  0012               	return	
  9075  001620                     i2l3442:
  9076                           
  9077                           ;usb_device.c: 2651: else
  9078                           ;usb_device.c: 2652: {
  9079                           ;usb_device.c: 2653: if(lastDTS == 0)
  9080  001620  502C               	movf	USBCtrlTrfInHandler@lastDTS,w,c
  9081  001622  A4D8               	btfss	status,2,c
  9082  001624  D00D               	goto	i2l3448
  9083                           
  9084                           ;usb_device.c: 2654: {
  9085                           ;usb_device.c: 2655: pBDTEntryIn[0]->STAT.Val = 0x40|(0x08 & 0x08);
  9086  001626  C00F  FFD9         	movff	_pBDTEntryIn,fsr2l
  9087  00162A  C010  FFDA         	movff	_pBDTEntryIn+1,fsr2h
  9088  00162E  0E48               	movlw	72
  9089  001630  6EDF               	movwf	indf2,c
  9090                           
  9091                           ;usb_device.c: 2656: pBDTEntryIn[0]->STAT.Val |= 0x80;
  9092  001632  C00F  FFD9         	movff	_pBDTEntryIn,fsr2l
  9093  001636  C010  FFDA         	movff	_pBDTEntryIn+1,fsr2h
  9094  00163A  0E00               	movlw	0
  9095  00163C  8EDB               	bsf	plusw2,7,c
  9096                           
  9097                           ;usb_device.c: 2657: }
  9098  00163E  0012               	return	
  9099  001640                     i2l3448:
  9100                           
  9101                           ;usb_device.c: 2658: else
  9102                           ;usb_device.c: 2659: {
  9103                           ;usb_device.c: 2660: pBDTEntryIn[0]->STAT.Val = 0x00|(0x08 & 0x08);
  9104  001640  C00F  FFD9         	movff	_pBDTEntryIn,fsr2l
  9105  001644  C010  FFDA         	movff	_pBDTEntryIn+1,fsr2h
  9106  001648  0E08               	movlw	8
  9107  00164A  6EDF               	movwf	indf2,c
  9108                           
  9109                           ;usb_device.c: 2661: pBDTEntryIn[0]->STAT.Val |= 0x80;
  9110  00164C  C00F  FFD9         	movff	_pBDTEntryIn,fsr2l
  9111  001650  C010  FFDA         	movff	_pBDTEntryIn+1,fsr2h
  9112  001654  0E00               	movlw	0
  9113  001656  8EDB               	bsf	plusw2,7,c
  9114                           
  9115                           ;usb_device.c: 2662: }
  9116                           ;usb_device.c: 2663: }
  9117                           ;usb_device.c: 2664: }
  9118  001658  0012               	return	
  9119  00165A                     i2l363:
  9120                           
  9121                           ;usb_device.c: 2665: else
  9122                           ;usb_device.c: 2666: {
  9123                           ;usb_device.c: 2670: if(outPipes[0].info.bits.busy == 1)
  9124  00165A  BE04               	btfsc	_outPipes+3,7,c	;volatile
  9125                           
  9126                           ;usb_device.c: 2675: }
  9127                           ;usb_device.c: 2676: outPipes[0].info.bits.busy = 0;
  9128                           
  9129                           ;usb_device.c: 2673: {
  9130                           ;usb_device.c: 2674: outPipes[0].pFunc();
  9131  00165C  9E04               	bcf	_outPipes+3,7,c	;volatile
  9132                           
  9133                           ;usb_device.c: 2677: }
  9134                           ;usb_device.c: 2679: controlTransferState = 0;
  9135  00165E  0E00               	movlw	0
  9136  001660  6E26               	movwf	_controlTransferState,c	;volatile
  9137  001662  0012               	return	
  9138  001664                     __end_of_USBCtrlTrfInHandler:
  9139                           	opt stack 0
  9140                           pclatu	equ	0xFFB
  9141                           pclath	equ	0xFFA
  9142                           tblptru	equ	0xFF8
  9143                           tblptrh	equ	0xFF7
  9144                           tblptrl	equ	0xFF6
  9145                           tablat	equ	0xFF5
  9146                           prodh	equ	0xFF4
  9147                           prodl	equ	0xFF3
  9148                           intcon	equ	0xFF2
  9149                           postinc0	equ	0xFEE
  9150                           fsr0h	equ	0xFEA
  9151                           fsr0l	equ	0xFE9
  9152                           wreg	equ	0xFE8
  9153                           indf1	equ	0xFE7
  9154                           fsr1h	equ	0xFE2
  9155                           fsr1l	equ	0xFE1
  9156                           indf2	equ	0xFDF
  9157                           postinc2	equ	0xFDE
  9158                           postdec2	equ	0xFDD
  9159                           plusw2	equ	0xFDB
  9160                           fsr2h	equ	0xFDA
  9161                           fsr2l	equ	0xFD9
  9162                           status	equ	0xFD8
  9163                           
  9164 ;; *************** function _USBCtrlTrfTxService *****************
  9165 ;; Defined at:
  9166 ;;		line 1789 in file "CDCLib/usb_device.c"
  9167 ;; Parameters:    Size  Location     Type
  9168 ;;		None
  9169 ;; Auto vars:     Size  Location     Type
  9170 ;;  byteToSend      1    0[COMRAM] unsigned char 
  9171 ;; Return value:  Size  Location     Type
  9172 ;;		None               void
  9173 ;; Registers used:
  9174 ;;		wreg, fsr1l, fsr1h, fsr2l, fsr2h, status,2, status,0, tblptrl, tblptrh, tblptru
  9175 ;; Tracked objects:
  9176 ;;		On entry : 0/0
  9177 ;;		On exit  : 0/0
  9178 ;;		Unchanged: 0/0
  9179 ;; Data sizes:     COMRAM   BANK0   BANK1   BANK2
  9180 ;;      Params:         0       0       0       0
  9181 ;;      Locals:         1       0       0       0
  9182 ;;      Temps:          0       0       0       0
  9183 ;;      Totals:         1       0       0       0
  9184 ;;Total ram usage:        1 bytes
  9185 ;; Hardware stack levels used:    1
  9186 ;; This function calls:
  9187 ;;		Nothing
  9188 ;; This function is called by:
  9189 ;;		_USBCtrlEPAllowDataStage
  9190 ;;		_USBCtrlTrfInHandler
  9191 ;; This function uses a non-reentrant model
  9192 ;;
  9193                           
  9194                           	psect	text46
  9195  001360                     __ptext46:
  9196                           	opt stack 0
  9197  001360                     _USBCtrlTrfTxService:
  9198                           	opt stack 21
  9199                           
  9200                           ;usb_device.c: 1791: uint8_t byteToSend;
  9201                           ;usb_device.c: 1795: byteToSend = 8;
  9202                           
  9203                           ;incstack = 0
  9204  001360  0E08               	movlw	8
  9205  001362  6E2B               	movwf	USBCtrlTrfTxService@byteToSend,c
  9206                           
  9207                           ;usb_device.c: 1796: if(inPipes[0].wCount.Val < (uint8_t)8)
  9208  001364  500E               	movf	_inPipes+5,w,c	;volatile
  9209  001366  E110               	bnz	i2l2920
  9210  001368  0E08               	movlw	8
  9211  00136A  5C0D               	subwf	_inPipes+4,w,c	;volatile
  9212  00136C  B0D8               	btfsc	status,0,c
  9213  00136E  D00C               	goto	i2l2920
  9214                           
  9215                           ;usb_device.c: 1797: {
  9216                           ;usb_device.c: 1798: byteToSend = inPipes[0].wCount.Val;
  9217  001370  C00D  F02B         	movff	_inPipes+4,USBCtrlTrfTxService@byteToSend	;volatile
  9218                           
  9219                           ;usb_device.c: 1805: if(shortPacketStatus == 0)
  9220  001374  5028               	movf	_shortPacketStatus,w,c	;volatile
  9221  001376  A4D8               	btfss	status,2,c
  9222  001378  D002               	goto	i2l2916
  9223                           
  9224                           ;usb_device.c: 1806: {
  9225                           ;usb_device.c: 1807: shortPacketStatus = 1;
  9226  00137A  0E01               	movlw	1
  9227  00137C  D004               	goto	L15
  9228  00137E                     i2l2916:
  9229                           
  9230                           ;usb_device.c: 1809: else if(shortPacketStatus == 1)
  9231  00137E  0428               	decf	_shortPacketStatus,w,c	;volatile
  9232  001380  A4D8               	btfss	status,2,c
  9233  001382  D002               	goto	i2l2920
  9234                           
  9235                           ;usb_device.c: 1810: {
  9236                           ;usb_device.c: 1811: shortPacketStatus = 2;
  9237  001384  0E02               	movlw	2
  9238  001386                     L15:
  9239  001386  6E28               	movwf	_shortPacketStatus,c	;volatile
  9240  001388                     i2l2920:
  9241                           
  9242                           ;usb_device.c: 1812: }
  9243                           ;usb_device.c: 1813: }
  9244                           ;usb_device.c: 1817: inPipes[0].wCount.Val -= byteToSend;
  9245  001388  502B               	movf	USBCtrlTrfTxService@byteToSend,w,c
  9246  00138A  5E0D               	subwf	_inPipes+4,f,c	;volatile
  9247  00138C  0E00               	movlw	0
  9248  00138E  5A0E               	subwfb	_inPipes+5,f,c	;volatile
  9249                           
  9250                           ;usb_device.c: 1822: pBDTEntryIn[0]->CNT = byteToSend;
  9251  001390  EE20 F001          	lfsr	2,1
  9252  001394  500F               	movf	_pBDTEntryIn,w,c
  9253  001396  26D9               	addwf	fsr2l,f,c
  9254  001398  5010               	movf	_pBDTEntryIn+1,w,c
  9255  00139A  22DA               	addwfc	fsr2h,f,c
  9256  00139C  C02B  FFDF         	movff	USBCtrlTrfTxService@byteToSend,indf2
  9257                           
  9258                           ;usb_device.c: 1826: pDst = (volatile uint8_t*)CtrlTrfData;
  9259  0013A0  0E38               	movlw	56
  9260  0013A2  0100               	movlb	0	; () banked
  9261  0013A4  6FE6               	movwf	_pDst& (0+255),b
  9262  0013A6  0E02               	movlw	2
  9263  0013A8  0100               	movlb	0	; () banked
  9264  0013AA  6FE7               	movwf	(_pDst+1)& (0+255),b
  9265                           
  9266                           ; BSR set to: 0
  9267                           ;usb_device.c: 1827: if(inPipes[0].info.bits.ctrl_trf_mem == 0x00)
  9268  0013AC  A00C               	btfss	_inPipes+3,0,c	;volatile
  9269  0013AE  D01C               	goto	i2l2938
  9270  0013B0  D03A               	goto	i2l2948
  9271  0013B2                     i2l2930:
  9272                           
  9273                           ; BSR set to: 0
  9274                           ;usb_device.c: 1830: {
  9275                           ;usb_device.c: 1831: *pDst++ = *inPipes[0].pSrc.bRom++;
  9276  0013B2  C009  FFF6         	movff	_inPipes,tblptrl	;volatile
  9277  0013B6  C00A  FFF7         	movff	_inPipes+1,tblptrh	;volatile
  9278  0013BA  6AF8               	clrf	tblptru,c
  9279  0013BC  C0E6  FFD9         	movff	_pDst,fsr2l
  9280  0013C0  C0E7  FFDA         	movff	_pDst+1,fsr2h
  9281  0013C4  0E02               	movlw	(high __ramtop+-1)
  9282  0013C6  64F7               	cpfsgt	tblptrh,c
  9283  0013C8  D003               	bra	i2u196_47
  9284  0013CA  0008               	tblrd		*
  9285  0013CC  50F5               	movf	tablat,w,c
  9286  0013CE  D005               	bra	i2u196_40
  9287  0013D0                     i2u196_47:
  9288  0013D0  CFF6 FFE1          	movff	tblptrl,fsr1l
  9289  0013D4  CFF7 FFE2          	movff	tblptrh,fsr1h
  9290  0013D8  50E7               	movf	indf1,w,c
  9291  0013DA                     i2u196_40:
  9292  0013DA  6EDF               	movwf	indf2,c
  9293  0013DC  4A09               	infsnz	_inPipes,f,c	;volatile
  9294  0013DE  2A0A               	incf	_inPipes+1,f,c	;volatile
  9295  0013E0  0100               	movlb	0	; () banked
  9296  0013E2  4BE6               	infsnz	_pDst& (0+255),f,b
  9297  0013E4  2BE7               	incf	(_pDst+1)& (0+255),f,b
  9298                           
  9299                           ; BSR set to: 0
  9300                           ;usb_device.c: 1832: byteToSend--;
  9301  0013E6  062B               	decf	USBCtrlTrfTxService@byteToSend,f,c
  9302  0013E8                     i2l2938:
  9303                           
  9304                           ; BSR set to: 0
  9305  0013E8  502B               	movf	USBCtrlTrfTxService@byteToSend,w,c
  9306  0013EA  B4D8               	btfsc	status,2,c
  9307  0013EC  0012               	return	
  9308  0013EE  D7E1               	goto	i2l2930
  9309  0013F0                     i2l2940:
  9310                           
  9311                           ; BSR set to: 0
  9312                           ;usb_device.c: 1838: {
  9313                           ;usb_device.c: 1839: *pDst++ = *inPipes[0].pSrc.bRam++;
  9314  0013F0  C009  FFF6         	movff	_inPipes,tblptrl	;volatile
  9315  0013F4  C00A  FFF7         	movff	_inPipes+1,tblptrh	;volatile
  9316  0013F8  6AF8               	clrf	tblptru,c
  9317  0013FA  C0E6  FFD9         	movff	_pDst,fsr2l
  9318  0013FE  C0E7  FFDA         	movff	_pDst+1,fsr2h
  9319  001402  0E02               	movlw	(high __ramtop+-1)
  9320  001404  64F7               	cpfsgt	tblptrh,c
  9321  001406  D003               	bra	i2u198_47
  9322  001408  0008               	tblrd		*
  9323  00140A  50F5               	movf	tablat,w,c
  9324  00140C  D005               	bra	i2u198_40
  9325  00140E                     i2u198_47:
  9326  00140E  CFF6 FFE1          	movff	tblptrl,fsr1l
  9327  001412  CFF7 FFE2          	movff	tblptrh,fsr1h
  9328  001416  50E7               	movf	indf1,w,c
  9329  001418                     i2u198_40:
  9330  001418  6EDF               	movwf	indf2,c
  9331  00141A  4A09               	infsnz	_inPipes,f,c	;volatile
  9332  00141C  2A0A               	incf	_inPipes+1,f,c	;volatile
  9333  00141E  0100               	movlb	0	; () banked
  9334  001420  4BE6               	infsnz	_pDst& (0+255),f,b
  9335  001422  2BE7               	incf	(_pDst+1)& (0+255),f,b
  9336                           
  9337                           ; BSR set to: 0
  9338                           ;usb_device.c: 1840: byteToSend--;
  9339  001424  062B               	decf	USBCtrlTrfTxService@byteToSend,f,c
  9340  001426                     i2l2948:
  9341                           
  9342                           ; BSR set to: 0
  9343  001426  502B               	movf	USBCtrlTrfTxService@byteToSend,w,c
  9344  001428  B4D8               	btfsc	status,2,c
  9345  00142A  0012               	return	
  9346  00142C  D7E1               	goto	i2l2940
  9347  00142E                     __end_of_USBCtrlTrfTxService:
  9348                           	opt stack 0
  9349                           pclatu	equ	0xFFB
  9350                           pclath	equ	0xFFA
  9351                           tblptru	equ	0xFF8
  9352                           tblptrh	equ	0xFF7
  9353                           tblptrl	equ	0xFF6
  9354                           tablat	equ	0xFF5
  9355                           prodh	equ	0xFF4
  9356                           prodl	equ	0xFF3
  9357                           intcon	equ	0xFF2
  9358                           postinc0	equ	0xFEE
  9359                           fsr0h	equ	0xFEA
  9360                           fsr0l	equ	0xFE9
  9361                           wreg	equ	0xFE8
  9362                           indf1	equ	0xFE7
  9363                           fsr1h	equ	0xFE2
  9364                           fsr1l	equ	0xFE1
  9365                           indf2	equ	0xFDF
  9366                           postinc2	equ	0xFDE
  9367                           postdec2	equ	0xFDD
  9368                           plusw2	equ	0xFDB
  9369                           fsr2h	equ	0xFDA
  9370                           fsr2l	equ	0xFD9
  9371                           status	equ	0xFD8
  9372                           pclatu	equ	0xFFB
  9373                           pclath	equ	0xFFA
  9374                           tblptru	equ	0xFF8
  9375                           tblptrh	equ	0xFF7
  9376                           tblptrl	equ	0xFF6
  9377                           tablat	equ	0xFF5
  9378                           prodh	equ	0xFF4
  9379                           prodl	equ	0xFF3
  9380                           intcon	equ	0xFF2
  9381                           postinc0	equ	0xFEE
  9382                           fsr0h	equ	0xFEA
  9383                           fsr0l	equ	0xFE9
  9384                           wreg	equ	0xFE8
  9385                           indf1	equ	0xFE7
  9386                           fsr1h	equ	0xFE2
  9387                           fsr1l	equ	0xFE1
  9388                           indf2	equ	0xFDF
  9389                           postinc2	equ	0xFDE
  9390                           postdec2	equ	0xFDD
  9391                           plusw2	equ	0xFDB
  9392                           fsr2h	equ	0xFDA
  9393                           fsr2l	equ	0xFD9
  9394                           status	equ	0xFD8
  9395                           
  9396                           	psect	rparam
  9397  0000                     pclatu	equ	0xFFB
  9398                           pclath	equ	0xFFA
  9399                           tblptru	equ	0xFF8
  9400                           tblptrh	equ	0xFF7
  9401                           tblptrl	equ	0xFF6
  9402                           tablat	equ	0xFF5
  9403                           prodh	equ	0xFF4
  9404                           prodl	equ	0xFF3
  9405                           intcon	equ	0xFF2
  9406                           postinc0	equ	0xFEE
  9407                           fsr0h	equ	0xFEA
  9408                           fsr0l	equ	0xFE9
  9409                           wreg	equ	0xFE8
  9410                           indf1	equ	0xFE7
  9411                           fsr1h	equ	0xFE2
  9412                           fsr1l	equ	0xFE1
  9413                           indf2	equ	0xFDF
  9414                           postinc2	equ	0xFDE
  9415                           postdec2	equ	0xFDD
  9416                           plusw2	equ	0xFDB
  9417                           fsr2h	equ	0xFDA
  9418                           fsr2l	equ	0xFD9
  9419                           status	equ	0xFD8
  9420                           
  9421                           	psect	temp
  9422  000055                     btemp:
  9423                           	opt stack 0
  9424  000055                     	ds	1
  9425  0000                     int$flags	set	btemp
  9426                           pclatu	equ	0xFFB
  9427                           pclath	equ	0xFFA
  9428                           tblptru	equ	0xFF8
  9429                           tblptrh	equ	0xFF7
  9430                           tblptrl	equ	0xFF6
  9431                           tablat	equ	0xFF5
  9432                           prodh	equ	0xFF4
  9433                           prodl	equ	0xFF3
  9434                           intcon	equ	0xFF2
  9435                           postinc0	equ	0xFEE
  9436                           fsr0h	equ	0xFEA
  9437                           fsr0l	equ	0xFE9
  9438                           wreg	equ	0xFE8
  9439                           indf1	equ	0xFE7
  9440                           fsr1h	equ	0xFE2
  9441                           fsr1l	equ	0xFE1
  9442                           indf2	equ	0xFDF
  9443                           postinc2	equ	0xFDE
  9444                           postdec2	equ	0xFDD
  9445                           plusw2	equ	0xFDB
  9446                           fsr2h	equ	0xFDA
  9447                           fsr2l	equ	0xFD9
  9448                           status	equ	0xFD8


Data Sizes:
    Strings     14
    Constant    211
    Data        0
    BSS         104
    Persistent  0
    Stack       0

Auto Spaces:
    Space          Size  Autos    Used
    COMRAM           94     42      84
    BANK0           160     96     158
    BANK1           256    256     256
    BANK2            64      0       0

Pointer List with Targets:

    USER_USB_CALLBACK_EVENT_HANDLER@pdata	PTR void  size(2) Largest target is 48
		 -> USTATcopy(COMRAM[1]), USBActiveConfiguration(COMRAM[1]), NULL(NULL[0]), BDT(BIGRAMl[48]), 

    memset@p1	PTR void  size(2) Largest target is 48
		 -> USBAlternateInterface(BANK0[2]), BDT(BIGRAMl[48]), UEP1(SFR[1]), 

    memset@p	PTR unsigned char  size(2) Largest target is 48
		 -> USBAlternateInterface(BANK0[2]), BDT(BIGRAMl[48]), UEP1(SFR[1]), 

    memcpy@d1	PTR void  size(2) Largest target is 8
		 -> SetupPkt(BIGRAMh[8]), 

    memcpy@d	PTR unsigned char  size(2) Largest target is 8
		 -> SetupPkt(BIGRAMh[8]), 

    memcpy@s1	PTR const void  size(2) Largest target is 767
		 -> cdc_data_tx(BIGRAMh[64]), cdc_data_rx(BIGRAMh[64]), RAM(DATA[767]), CtrlTrfData(BIGRAMh[8]), 
		 -> SetupPkt(BIGRAMh[8]), NULL(NULL[0]), 

    memcpy@s	PTR const unsigned char  size(2) Largest target is 767
		 -> cdc_data_tx(BIGRAMh[64]), cdc_data_rx(BIGRAMh[64]), RAM(DATA[767]), CtrlTrfData(BIGRAMh[8]), 
		 -> SetupPkt(BIGRAMh[8]), NULL(NULL[0]), 

    sprintf@f	PTR const unsigned char  size(2) Largest target is 7
		 -> STR_1(CODE[7]), 

    sprintf@cp	PTR const unsigned char  size(2) Largest target is 64
		 -> STR_2(CODE[7]), main@buff(BANK0[64]), 

    sprintf@sp	PTR unsigned char  size(2) Largest target is 256
		 -> main@text(BANK1[256]), 

    sprintf@ap	PTR void [1] size(2) Largest target is 2
		 -> ?_sprintf(BANK0[2]), 

    cdcGets@data	PTR unsigned char  size(2) Largest target is 64
		 -> main@buff(BANK0[64]), 

    cdcPuts@data	PTR unsigned char  size(2) Largest target is 256
		 -> main@text(BANK1[256]), 

    putsUSBUSART@data	PTR unsigned char  size(2) Largest target is 256
		 -> main@text(BANK1[256]), 

    putsUSBUSART@pData	PTR unsigned char  size(2) Largest target is 256
		 -> main@text(BANK1[256]), 

    getsUSBUSART@buffer	PTR unsigned char  size(2) Largest target is 64
		 -> main@buff(BANK0[64]), 

    CDCDataInHandle	PTR void  size(2) Largest target is 48
		 -> NULL(NULL[0]), BDT(BIGRAMl[48]), 

    CDCDataOutHandle	PTR void  size(2) Largest target is 48
		 -> NULL(NULL[0]), BDT(BIGRAMl[48]), 

    pCDCDst.wRom	PTR const unsigned int  size(2) Largest target is 0

    pCDCDst.bRom	PTR const unsigned char  size(2) Largest target is 0

    pCDCDst.wRam	PTR unsigned int  size(2) Largest target is 0

    pCDCDst.bRam	PTR unsigned char  size(2) Largest target is 0

    S1576_POINTER$wRom	PTR const unsigned int  size(2) Largest target is 0

    pCDCSrc.wRom	PTR const unsigned int  size(2) Largest target is 0

    S1576_POINTER$bRom	PTR const unsigned char  size(2) Largest target is 0

    pCDCSrc.bRom	PTR const unsigned char  size(2) Largest target is 0

    S1576_POINTER$wRam	PTR unsigned int  size(2) Largest target is 0

    pCDCSrc.wRam	PTR unsigned int  size(2) Largest target is 0

    S1576_POINTER$bRam	PTR unsigned char  size(2) Largest target is 0

    pCDCSrc.bRam	PTR unsigned char  size(2) Largest target is 0

    USBStdFeatureReqHandler@pUEP	PTR unsigned char  size(2) Largest target is 1
		 -> UEP0(SFR[1]), 

    USBStdFeatureReqHandler@p	PTR struct __BDT size(2) Largest target is 48
		 -> NULL(NULL[0]), BDT(BIGRAMl[48]), 

    sp__memcpy	PTR void  size(2) Largest target is 8
		 -> SetupPkt(BIGRAMh[8]), 

    USBStdGetStatusHandler@p	PTR struct __BDT size(2) Largest target is 48
		 -> NULL(NULL[0]), BDT(BIGRAMl[48]), 

    pDst	PTR volatile unsigned char  size(2) Largest target is 8
		 -> CtrlTrfData(BIGRAMh[8]), NULL(NULL[0]), 

    USBConfigureEndpoint@handle	PTR volatile struct __BDT size(2) Largest target is 48
		 -> BDT(BIGRAMl[48]), 

    pBDTEntryEP0OutCurrent	PTR volatile struct __BDT size(2) Largest target is 48
		 -> NULL(NULL[0]), BDT(BIGRAMl[48]), 

    pBDTEntryEP0OutNext	PTR volatile struct __BDT size(2) Largest target is 48
		 -> NULL(NULL[0]), BDT(BIGRAMl[48]), 

    USBTransferOnePacket@data	PTR unsigned char  size(2) Largest target is 64
		 -> cdc_data_tx(BIGRAMh[64]), cdc_data_rx(BIGRAMh[64]), NULL(NULL[0]), 

    sp__USBTransferOnePacket	PTR void  size(2) Largest target is 48
		 -> NULL(NULL[0]), BDT(BIGRAMl[48]), 

    USBTransferOnePacket@handle	PTR volatile struct __BDT size(2) Largest target is 48
		 -> NULL(NULL[0]), BDT(BIGRAMl[48]), 

    USBEnableEndpoint@p	PTR unsigned char  size(2) Largest target is 1
		 -> UEP0(SFR[1]), 

    pBDTEntryOut	PTR volatile struct __BDT[3] size(2) Largest target is 48
		 -> NULL(NULL[0]), BDT(BIGRAMl[48]), 

    pBDTEntryIn	PTR volatile struct __BDT[3] size(2) Largest target is 48
		 -> NULL(NULL[0]), BDT(BIGRAMl[48]), 

    S199$pFunc	PTR FTN()void  size(2) Largest target is 0
		 -> Absolute function(), 

    outPipes.pFunc	PTR FTN()void  size(2) Largest target is 0
		 -> Absolute function(), 

    S189$wRam	PTR unsigned int  size(2) Largest target is 0

    outPipes.pDst.wRam	PTR unsigned int  size(2) Largest target is 0

    S189$bRam	PTR unsigned char  size(2) Largest target is 0

    outPipes.pDst.bRam	PTR unsigned char  size(2) Largest target is 0

    S165$wRom	PTR const unsigned int  size(2) Largest target is 0

    inPipes.pSrc.wRom	PTR const unsigned int  size(2) Largest target is 0

    S165$wRam	PTR unsigned int  size(2) Largest target is 0

    inPipes.pSrc.wRam	PTR unsigned int  size(2) Largest target is 0

    S165$bRom	PTR const unsigned char  size(2) Largest target is 0

    inPipes.pSrc.bRom	PTR const unsigned char  size(2) Largest target is 0

    S165$bRam	PTR unsigned char  size(2) Largest target is 0

    inPipes.pSrc.bRam	PTR unsigned char  size(2) Largest target is 0

    sp__memset	PTR void  size(2) Largest target is 48
		 -> USBAlternateInterface(BANK0[2]), BDT(BIGRAMl[48]), UEP1(SFR[1]), 

    USB_SD_Ptr	const PTR const unsigned char [3] size(2) Largest target is 52
		 -> sd002(CODE[52]), sd001(CODE[52]), sd000(CODE[4]), 

    USB_CD_Ptr	const PTR const unsigned char [1] size(2) Largest target is 67
		 -> configDescriptor1(CODE[67]), 


Critical Paths under _main in COMRAM

    None.

Critical Paths under _SYS_InterruptHigh in COMRAM

    _SYS_InterruptHigh->_USBDeviceTasks
    _USBDeviceTasks->_USBCtrlEPService
    i2_USBDeviceInit->i2_memset
    _USBWakeFromSuspend->_USER_USB_CALLBACK_EVENT_HANDLER
    _USBSuspend->_USER_USB_CALLBACK_EVENT_HANDLER
    _USBCtrlEPAllowDataStage->_USBCtrlTrfTxService
    _USBCheckStdRequest->_USBStdFeatureReqHandler
    _USBStdSetCfgHandler->_USER_USB_CALLBACK_EVENT_HANDLER
    _USBStdFeatureReqHandler->_USER_USB_CALLBACK_EVENT_HANDLER
    _CDCInitEP->_USBEnableEndpoint
    _USBEnableEndpoint->_USBConfigureEndpoint
    _USBCtrlTrfOutHandler->_USBCtrlTrfRxService
    _USBCtrlTrfInHandler->_USBCtrlTrfTxService

Critical Paths under _main in BANK0

    _main->_sprintf
    _update->_CDCTxService
    _systemInit->_USBDeviceInit
    _USBDeviceInit->_memset
    _sprintf->___lwmod
    ___lwmod->___lwdiv
    _cdcPuts->_CDCTxService
    _CDCTxService->_USBTransferOnePacket
    _cdcGets->_getsUSBUSART
    _getsUSBUSART->_USBTransferOnePacket

Critical Paths under _SYS_InterruptHigh in BANK0

    None.

Critical Paths under _main in BANK1

    None.

Critical Paths under _SYS_InterruptHigh in BANK1

    None.

Critical Paths under _main in BANK2

    None.

Critical Paths under _SYS_InterruptHigh in BANK2

    None.

Call Graph Tables:

 ---------------------------------------------------------------------------------
 (Depth) Function   	        Calls       Base Space   Used Autos Params    Refs
 ---------------------------------------------------------------------------------
 (0) _main                                               322   322      0   10752
                                             30 BANK0     66    66      0
                                              0 BANK1    256   256      0
                            _cdcGets
                            _cdcPuts
                            _sprintf
                         _systemInit
                             _update
 ---------------------------------------------------------------------------------
 (1) _update                                               2     0      2    2127
                                              9 BANK0      2     0      2
                       _CDCTxService
 ---------------------------------------------------------------------------------
 (1) _systemInit                                           0     0      0    1392
                  _SYSTEM_Initialize
                    _USBDeviceAttach
                      _USBDeviceInit
 ---------------------------------------------------------------------------------
 (2) _USBDeviceInit                                        1     1      0    1361
                                              8 BANK0      1     1      0
                             _memset
 ---------------------------------------------------------------------------------
 (3) _memset                                               8     2      6    1070
                                              0 BANK0      8     2      6
 ---------------------------------------------------------------------------------
 (2) _USBDeviceAttach                                      0     0      0       0
 ---------------------------------------------------------------------------------
 (2) _SYSTEM_Initialize                                    1     1      0      31
                                              0 BANK0      1     1      0
 ---------------------------------------------------------------------------------
 (1) _sprintf                                             24    16      8    1963
                                             12 BANK0     18    10      8
                            ___lwdiv
                            ___lwmod
 ---------------------------------------------------------------------------------
 (2) ___lwmod                                              5     1      4     440
                                              7 BANK0      5     1      4
                            ___lwdiv (ARG)
 ---------------------------------------------------------------------------------
 (2) ___lwdiv                                              7     3      4     449
                                              0 BANK0      7     3      4
 ---------------------------------------------------------------------------------
 (1) _cdcPuts                                              2     0      2    2530
                                              9 BANK0      2     0      2
                       _CDCTxService
                       _putsUSBUSART
 ---------------------------------------------------------------------------------
 (2) _putsUSBUSART                                         5     3      2     268
                                              0 BANK0      5     3      2
 ---------------------------------------------------------------------------------
 (2) _CDCTxService                                         2     2      0    2127
                                              7 BANK0      2     2      0
               _USBTransferOnePacket
 ---------------------------------------------------------------------------------
 (1) _cdcGets                                              5     1      4    2500
                                             11 BANK0      5     1      4
                       _getsUSBUSART
 ---------------------------------------------------------------------------------
 (2) _getsUSBUSART                                         4     1      3    2230
                                              7 BANK0      4     1      3
               _USBTransferOnePacket
 ---------------------------------------------------------------------------------
 (3) _USBTransferOnePacket                                 7     3      4    1926
                                              0 BANK0      7     3      4
 ---------------------------------------------------------------------------------
 Estimated maximum stack depth 3
 ---------------------------------------------------------------------------------
 (Depth) Function   	        Calls       Base Space   Used Autos Params    Refs
 ---------------------------------------------------------------------------------
 (4) _SYS_InterruptHigh                                   14    14      0   29290
                                             28 COMRAM    14    14      0
                     _USBDeviceTasks
 ---------------------------------------------------------------------------------
 (5) _USBDeviceTasks                                       1     1      0   29290
                                             27 COMRAM     1     1      0
          _USBCtrlEPAllowStatusStage
                   _USBCtrlEPService
      _USBIncrement1msInternalTimers
                    _USBStallHandler
                         _USBSuspend
                 _USBWakeFromSuspend
    _USER_USB_CALLBACK_EVENT_HANDLER
                    i2_USBDeviceInit
 ---------------------------------------------------------------------------------
 (6) i2_USBDeviceInit                                      1     1      0     610
                                              8 COMRAM     1     1      0
                           i2_memset
 ---------------------------------------------------------------------------------
 (6) _USBWakeFromSuspend                                   0     0      0    3857
    _USER_USB_CALLBACK_EVENT_HANDLER
 ---------------------------------------------------------------------------------
 (6) _USBSuspend                                           0     0      0    3857
    _USER_USB_CALLBACK_EVENT_HANDLER
 ---------------------------------------------------------------------------------
 (6) _USBStallHandler                                      1     1      0       0
                                              0 COMRAM     1     1      0
 ---------------------------------------------------------------------------------
 (6) _USBIncrement1msInternalTimers                        0     0      0       0
 ---------------------------------------------------------------------------------
 (6) _USBCtrlEPService                                     1     1      0   17063
                                             26 COMRAM     1     1      0
                _USBCtrlTrfInHandler
               _USBCtrlTrfOutHandler
             _USBCtrlTrfSetupHandler
                             _memcpy
 ---------------------------------------------------------------------------------
 (7) _memcpy                                              10     4      6     387
                                              0 COMRAM    10     4      6
 ---------------------------------------------------------------------------------
 (7) _USBCtrlTrfSetupHandler                               0     0      0   16447
                 _USBCheckStdRequest
           _USBCtrlEPServiceComplete
    _USER_USB_CALLBACK_EVENT_HANDLER
 ---------------------------------------------------------------------------------
 (8) _USBCtrlEPServiceComplete                             0     0      0      92
            _USBCtrlEPAllowDataStage
          _USBCtrlEPAllowStatusStage
 ---------------------------------------------------------------------------------
 (9) _USBCtrlEPAllowDataStage                              0     0      0      92
                _USBCtrlTrfTxService
 ---------------------------------------------------------------------------------
 (8) _USBCheckStdRequest                                   0     0      0   12498
            _USBStdFeatureReqHandler
                _USBStdGetDscHandler
             _USBStdGetStatusHandler
                _USBStdSetCfgHandler
    _USER_USB_CALLBACK_EVENT_HANDLER
 ---------------------------------------------------------------------------------
 (9) _USBStdSetCfgHandler                                  1     1      0    4355
                                             20 COMRAM     1     1      0
    _USER_USB_CALLBACK_EVENT_HANDLER
                           i2_memset
 ---------------------------------------------------------------------------------
 (7) i2_memset                                             8     2      6     408
                                              0 COMRAM     8     2      6
 ---------------------------------------------------------------------------------
 (9) _USBStdGetStatusHandler                               3     3      0      46
                                              0 COMRAM     3     3      0
 ---------------------------------------------------------------------------------
 (9) _USBStdGetDscHandler                                  2     2      0       0
                                              0 COMRAM     2     2      0
 ---------------------------------------------------------------------------------
 (9) _USBStdFeatureReqHandler                              6     6      0    4240
                                             20 COMRAM     6     6      0
    _USER_USB_CALLBACK_EVENT_HANDLER
 ---------------------------------------------------------------------------------
 (6) _USER_USB_CALLBACK_EVENT_HANDLER                      8     2      6    3857
                                             12 COMRAM     8     2      6
                 _USBCheckCDCRequest
                            _cdcInit
                i2_SYSTEM_Initialize
 ---------------------------------------------------------------------------------
 (7) i2_SYSTEM_Initialize                                  1     1      0      22
                                              0 COMRAM     1     1      0
 ---------------------------------------------------------------------------------
 (7) _cdcInit                                              0     0      0    1143
                          _CDCInitEP
 ---------------------------------------------------------------------------------
 (8) _CDCInitEP                                            0     0      0    1143
                  _USBEnableEndpoint
             i2_USBTransferOnePacket
 ---------------------------------------------------------------------------------
 (9) i2_USBTransferOnePacket                               7     3      4     410
                                              0 COMRAM     7     3      4
 ---------------------------------------------------------------------------------
 (9) _USBEnableEndpoint                                    4     3      1     733
                                              8 COMRAM     4     3      1
               _USBConfigureEndpoint
 ---------------------------------------------------------------------------------
 (10) _USBConfigureEndpoint                                8     7      1     400
                                              0 COMRAM     8     7      1
 ---------------------------------------------------------------------------------
 (7) _USBCheckCDCRequest                                   0     0      0       0
 ---------------------------------------------------------------------------------
 (7) _USBCtrlTrfOutHandler                                 0     0      0     114
                _USBCtrlTrfRxService
 ---------------------------------------------------------------------------------
 (8) _USBCtrlTrfRxService                                  2     2      0     114
                                              0 COMRAM     2     2      0
          _USBCtrlEPAllowStatusStage
 ---------------------------------------------------------------------------------
 (9) _USBCtrlEPAllowStatusStage                            0     0      0       0
 ---------------------------------------------------------------------------------
 (7) _USBCtrlTrfInHandler                                  1     1      0     115
                                              1 COMRAM     1     1      0
                _USBCtrlTrfTxService
 ---------------------------------------------------------------------------------
 (10) _USBCtrlTrfTxService                                 1     1      0      92
                                              0 COMRAM     1     1      0
 ---------------------------------------------------------------------------------
 Estimated maximum stack depth 10
 ---------------------------------------------------------------------------------

 Call Graph Graphs:

 _main (ROOT)
   _cdcGets
     _getsUSBUSART
       _USBTransferOnePacket
   _cdcPuts
     _CDCTxService
       _USBTransferOnePacket
     _putsUSBUSART
   _sprintf
     ___lwdiv
     ___lwmod
       ___lwdiv (ARG)
   _systemInit
     _SYSTEM_Initialize
     _USBDeviceAttach
     _USBDeviceInit
       _memset
   _update
     _CDCTxService
       _USBTransferOnePacket

 _SYS_InterruptHigh (ROOT)
   _USBDeviceTasks
     _USBCtrlEPAllowStatusStage
     _USBCtrlEPService
       _USBCtrlTrfInHandler
         _USBCtrlTrfTxService
       _USBCtrlTrfOutHandler
         _USBCtrlTrfRxService
           _USBCtrlEPAllowStatusStage
       _USBCtrlTrfSetupHandler
         _USBCheckStdRequest
           _USBStdFeatureReqHandler
             _USER_USB_CALLBACK_EVENT_HANDLER
               _USBCheckCDCRequest
               _cdcInit
                 _CDCInitEP
                   _USBEnableEndpoint
                     _USBConfigureEndpoint
                   i2_USBTransferOnePacket
               i2_SYSTEM_Initialize
           _USBStdGetDscHandler
           _USBStdGetStatusHandler
           _USBStdSetCfgHandler
             _USER_USB_CALLBACK_EVENT_HANDLER
               _USBCheckCDCRequest
               _cdcInit
                 _CDCInitEP
                   _USBEnableEndpoint
                     _USBConfigureEndpoint
                   i2_USBTransferOnePacket
               i2_SYSTEM_Initialize
             i2_memset
           _USER_USB_CALLBACK_EVENT_HANDLER
             _USBCheckCDCRequest
             _cdcInit
               _CDCInitEP
                 _USBEnableEndpoint
                   _USBConfigureEndpoint
                 i2_USBTransferOnePacket
             i2_SYSTEM_Initialize
         _USBCtrlEPServiceComplete
           _USBCtrlEPAllowDataStage
             _USBCtrlTrfTxService
           _USBCtrlEPAllowStatusStage
         _USER_USB_CALLBACK_EVENT_HANDLER
           _USBCheckCDCRequest
           _cdcInit
             _CDCInitEP
               _USBEnableEndpoint
                 _USBConfigureEndpoint
               i2_USBTransferOnePacket
           i2_SYSTEM_Initialize
       _memcpy
     _USBIncrement1msInternalTimers
     _USBStallHandler
     _USBSuspend
       _USER_USB_CALLBACK_EVENT_HANDLER
         _USBCheckCDCRequest
         _cdcInit
           _CDCInitEP
             _USBEnableEndpoint
               _USBConfigureEndpoint
             i2_USBTransferOnePacket
         i2_SYSTEM_Initialize
     _USBWakeFromSuspend
       _USER_USB_CALLBACK_EVENT_HANDLER
         _USBCheckCDCRequest
         _cdcInit
           _CDCInitEP
             _USBEnableEndpoint
               _USBConfigureEndpoint
             i2_USBTransferOnePacket
         i2_SYSTEM_Initialize
     _USER_USB_CALLBACK_EVENT_HANDLER
       _USBCheckCDCRequest
       _cdcInit
         _CDCInitEP
           _USBEnableEndpoint
             _USBConfigureEndpoint
           i2_USBTransferOnePacket
       i2_SYSTEM_Initialize
     i2_USBDeviceInit
       i2_memset

 Address spaces:
Name               Size   Autos  Total    Cost      Usage
BIGRAMl            1FF      0       0      12        0.0%
EEDATA             100      0       0       0        0.0%
BITBANK1           100      0       0       8        0.0%
BANK1              100    100     100       6      100.0%
BITBANK0            A0      0       0       4        0.0%
BANK0               A0     60      9E       5       98.8%
BITCOMRAM           5E      0       0       0        0.0%
COMRAM              5E     2A      54       1       89.4%
BIGRAMh             40      0       0      11        0.0%
BITBANK2            40      0       0       9        0.0%
BANK2               40      0       0      10        0.0%
BITSFR_1             0      0       0      40        0.0%
SFR_1                0      0       0      40        0.0%
BITSFR               0      0       0      40        0.0%
SFR                  0      0       0      40        0.0%
STACK                0      0       0       2        0.0%
NULL                 0      0       0       0        0.0%
ABS                  0      0     1F2       7        0.0%
DATA                 0      0     1F2       3        0.0%
CODE                 0      0       0       0        0.0%


Microchip Technology PIC18 Macro Assembler V1.35 build -356382666 
Symbol Table                                                                                   Wed Jan 20 21:59:54 2016

                              _USB_SD_Ptr 030B                        __end_of_systemInit 2068  
                           _USBDeviceInit 0880                        __size_of_CDCInitEP 006C  
                            __CFG_CP0$OFF 000000                              __CFG_CP1$OFF 000000  
                            _putsUSBUSART 1D46      USER_USB_CALLBACK_EVENT_HANDLER@event 0037  
    USER_USB_CALLBACK_EVENT_HANDLER@pdata 0039                                       l227 1EEC  
                                     l228 1EEA               __end_of_USBStdGetDscHandler 0ED2  
                                     l167 08F4                                       l531 0BBC  
                                     l526 0B6A                                       l579 2004  
                                     _BDT 000200                              __CFG_CPB$OFF 000000  
                                     _UIE 000F60                                       _UIR 000F62  
                              _USBSuspend 1F28                              __CFG_BORV$30 000000  
                    USBStdSetCfgHandler@i 003F                                       prod 000FF3  
                                     wreg 000FE8                            _USBDeviceTasks 0C82  
                            __CFG_FOSC$HS 000000                            _USBDeviceState 001F  
                   ??_USBCtrlTrfRxService 002B                  __size_ofi2_USBDeviceInit 0150  
                          ??_getsUSBUSART 006A                  USBEnableEndpoint@options 0033  
                            __CFG_LVP$OFF 000000                                      l1063 1BA2  
                                    l1073 1CE0                                      l4210 1340  
              USBConfigureEndpoint@handle 0031                                      l4320 1800  
                                    l4240 08D4                                      l4314 17D2  
                                    l4402 0C08                                      l4324 182A  
                                    l4420 0C56                                      l4404 0C14  
                                    l4412 0C38                                      l4500 0672  
                                    l4180 1E66                                      l4252 0900  
                                    l4236 08CA                                      l4190 12A6  
                                    l4318 17FA                                      l4422 0C5A  
                                    l4414 0C42                                      l4350 1D80  
                                    l4342 1D60                                      l4328 185A  
                                    l4424 0C7E                                      l4432 1B52  
                                    l4184 1E78                                      l4264 0934  
                                    l4338 1D52                                      l4434 1B5E  
                                    l4522 0702                                      l4506 0690  
                                    l4274 09A4                                      l4602 1A0A  
                                    l4380 0BA8                                      l4444 1B94  
                                    l4436 1B64                                      l4460 1CD2  
                                    l4452 1C9C                                      l4540 0792  
                                    l4516 06CC                                      l4508 0698  
                                    l4268 093E                                      l4198 12DA  
                                    l4374 0B74                                      l4454 1CA8  
                                    l4526 072A                                      l4368 0B5E  
                                    l4456 1CAE                                      l4560 07EE  
                                    l4552 07C8                                      l4528 075C  
                                    l4472 1FFC                                      l4394 0BE4  
                                    l4386 0BC0                                      l4538 078C  
                                    l4570 0872                                      l4494 1F1C  
                                    l4566 084A                                      l4558 07E8  
                                    l4568 0856                                      l4594 1994  
                   ??i2_SYSTEM_Initialize 002B                                      STR_1 03DB  
                                    STR_2 03D4                                      u4030 06F4  
                                    u4040 0722                                      u4037 06EA  
                                    u4150 19CA                                      u4047 0718  
                   ??_USBCtrlTrfTxService 002B                                      _UCFG 000F61  
                                    _UEP0 000F53                                      _UEP1 000F54  
                                    _UEIE 000F5B                                      _UCON 000F64  
                                    _UEIR 000F5F                           _CDCDataInHandle 00E4  
  USBStdFeatureReqHandler@current_ep_data 0042                                      _pDst 00E6  
                                    _main 198E                  ??i2_USBTransferOnePacket 002F  
                                    fsr0h 000FEA                                      fsr1h 000FE2  
                                    fsr0l 000FE9                                      fsr2h 000FDA  
                                    indf1 000FE7                               _BaudRateGen 00D0  
                                    fsr1l 000FE1                                      indf2 000FDF  
                                    fsr2l 000FD9                           _USBDeviceAttach 1EC4  
                                    btemp 0055                                      pclat 000FFA  
                                    prodh 000FF4                                      prodl 000FF3  
                                    start 0082                             __CFG_IESO$OFF 000000  
              __end_of_USBCheckStdRequest 1288                    ??_USBCtrlTrfOutHandler 002D  
                            ___param_bank 000010                 ??_USBStdFeatureReqHandler 003F  
                ??_USBStdGetStatusHandler 002B                            ?_USBDeviceInit 002B  
                           __CFG_PLLEN$ON 000000                                     ?_main 002B  
       __size_of_USBCtrlEPServiceComplete 00F4                           __end_of_cdcGets 1F28  
                         __end_of_cdcInit 1FAC                    __end_of_USBDeviceTasks 0DB2  
               ?_USBCtrlEPServiceComplete 002B                           __end_of___lwdiv 1BAC  
                         __end_of___lwmod 1CEA                                     i2l320 1730  
                                   i2l411 05D0                                     i2l315 171E  
                                   i2l252 1056                                     i2l318 17A6  
                                   i2l190 0D48                                     i2l319 172C  
                                   i2l167 0A52                                     i2l328 1DDC  
                                   i2l178 0CAA                           __end_of_cdcPuts 2044  
                                   i2l363 165A                                     i2l188 0D38  
                                   i2l189 0DAE                                     i2l480 16E4  
                                   i2l392 040C                                     i2l377 11BE  
                                   i2l386 120C                                     i2l478 16B2  
                                   _UADDR 000F5C                            __CFG_BBSIZ$OFF 000000  
                                   _USTAT 000F63                             __CFG_WRT0$OFF 000000  
      __size_of_USBCtrlEPAllowStatusStage 00C2                             __CFG_WRT1$OFF 000000  
                          __CFG_EBTR0$OFF 000000                            __CFG_FCMEN$OFF 000000  
                          __CFG_EBTR1$OFF 000000           __end_of_USBCtrlEPAllowDataStage 18FA  
                                   _sd000 03D0                                     _sd001 0356  
                                   _sd002 038A                             __CFG_WRTB$OFF 000000  
          ?_USBIncrement1msInternalTimers 002B                             __CFG_WRTC$OFF 000000  
                          __CFG_EBTRB$OFF 000000                                i2memset@p1 002B  
                         __end_of_dpowers 030B                            __CFG_BOREN$OFF 000000  
                                   tablat 000FF5                                     plusw2 000FDB  
                       __end_of_CDCInitEP 1C88                                     status 000FD8  
                         __end_of_sprintf 0880                          __end_ofi2_memset 1F82  
            __size_of_USBStdSetCfgHandler 00DC                            __CFG_MCLRE$OFF 000000  
                         __initialization 1FAC                              __end_of_main 1A1E  
                   _control_signal_bitmap 00EC                 __size_of_USBCtrlEPService 0090  
                                  ??_main 007E                             __activetblptr 000002  
                         ?_USBDeviceTasks 002B                               ?_USBSuspend 002B  
                            _cdc_mem_type 00EB                   __end_of_USBDeviceAttach 1EF6  
                        _CDCDataOutHandle 0015                           getsUSBUSART@len 0069  
                  SYSTEM_Initialize@state 0060                     __size_of_CDCTxService 0144  
                                  i2l3002 18B0                                    i2l3022 1112  
                                  i2l3006 18C8                                    i2l3104 178E  
                                  i2l3032 1146                                    i2l3122 0408  
                                  i2l3026 111A                                    i2l3060 0DD4  
                                  i2l3300 11D2                                    i2l3142 04C4  
                                  i2l3070 0E5E                                    i2l3310 11EA  
                                  i2l3160 0550                                    i2l3144 04C6  
                                  i2l3136 0480                                    i2l3056 0DC2  
                                  i2l3048 118C                                    i2l3312 11F0  
                                  i2l3208 1000                                    i2l3082 0EBA  
                                  i2l3322 1226                                    i2l3164 056A  
                                  i2l3148 04E2                                    i2l3076 0EAE  
                                  i2l3068 0E58                                    i2l3308 11E4  
                                  i2l3228 107E                                    i2l3430 15E0  
                                  i2l3262 0F20                                    i2l3414 1D40  
                                  i2l3406 1CF8                                    i2l3190 0632  
                                  i2l3174 05B0                                    i2l3158 0534  
                                  i2l3078 0EB4                                    i2l3094 174E  
                                  i2l3326 1244                            __CFG_WDTEN$OFF 000000  
                                  i2l3256 0EFE                                    i2l3192 063E  
                                  i2l3184 05EC                                    i2l3176 05BC  
                                  i2l3600 1A9E                                    i2l3442 1620  
                                  i2l3274 0F7A                                    i2l2810 158C  
                                  i2l3428 15DC                                    i2l3278 0F94  
                                  i2l3374 1E0E                                    i2l3542 1EB6  
                                  i2l2920 1388                                    i2l3448 1640  
                                  i2l3296 11C6                                    i2l3368 1DF2  
                                  i2l3544 1EB8                                    i2l2930 13B2  
                                  i2l2850 16A6                                    i2l2842 1690  
                                  i2l3298 11CC                                    i2l2940 13F0  
                                  i2l2916 137E                                    i2l3580 1DD8  
                                  i2l3820 0A98                                    i2l3804 0A5E  
                                  i2l2782 1E3E                                    i2l2790 1506  
                                  i2l3902 0CFE                                    i2l2768 195C  
                                  i2l2952 1F60                                    i2l3816 0A90  
                                  i2l2938 13E8                                    i2l2858 16CE  
                                  i2l2866 16EC                                    i2l2778 1E30  
                                  i2l2890 1BBE                                    i2l3826 0AF4  
                                  i2l3922 0D40                                    i2l2948 1426  
                                  i2l2972 1474                                    i2l4644 1BE2  
                                  i2l2892 1BC4                                    i2l2956 1F70  
                                  i2l3916 0D2E                                    i2l3908 0D08  
                                  i2l2798 1530                                    i2l4646 1C16  
                                  i2l2886 1BAE                                    i2l3598 1A98  
                                  i2l3942 0D8E                                    i2l2888 1BB6  
                                  i2l2896 1BCA                                    i2l3792 0A36  
                                  i2l3944 0DAA                                    i2l3936 0D6E  
                                  i2l3864 0CA2                                    i2l3856 0C96  
                                  i2l3890 0CEA                                    i2l3788 0A2E  
                                  i2l3884 0CC6                                    i2l3878 0CBC  
                           CDCTxService@i 0067                  i2USBTransferOnePacket@ep 002F  
                       ??i2_USBDeviceInit 0033           __size_ofi2_USBTransferOnePacket 00BA  
                       _shortPacketStatus 0028                            __CFG_XINST$OFF 000000  
                         USBDeviceTasks@i 0046               USBStdFeatureReqHandler@pUEP 0040  
                USBTransferOnePacket@data 0061                USBCtrlTrfInHandler@lastDTS 002C  
                         ??_USBDeviceInit 0068                            __CFG_STVREN$ON 000000  
                               ??_cdcGets 006F                      __end_of_getsUSBUSART 185E  
                               ??_cdcInit 0037                                 ??___lwdiv 0064  
                               ??___lwmod 006B                                 ??_cdcPuts 006B  
                       _USBEnableEndpoint 1E20           __size_of_USBStdGetStatusHandler 00AA  
                                  _memcpy 1DE0                                    _memset 1E5C  
                                  clear_0 1FB2                                    clear_1 1FBE  
                      ?_USBEnableEndpoint 0033                                    _update 1FF8  
           __size_of_USBTransferOnePacket 00D8                              _CDCTxService 0B3E  
                            __mediumconst 0000                                    tblptrh 000FF7  
                                  tblptrl 000FF6                                    tblptru 000FF8  
                     ??_USBEnableEndpoint 0034                                 ??_sprintf 0074  
                             _CtrlTrfData 000238                           __CFG_HFOFST$OFF 000000  
                    _controlTransferState 0026                         _SYSTEM_Initialize 2014  
                              __accesstop 0060                   __end_of__initialization 1FC4  
                      ?_SYSTEM_Initialize 002B                             ___rparam_used 000001  
                __size_of_USBStallHandler 0046                       __size_of_USBSuspend 002E  
                          __pcstackCOMRAM 002B                 __end_of_USBEnableEndpoint 1E5C  
                           __end_of_sd000 03D4                             __end_of_sd001 038A  
                           __end_of_sd002 03BE                       ??_SYSTEM_Initialize 0060  
        __size_of_USBCtrlEPAllowDataStage 009C             __size_of_USBConfigureEndpoint 0094  
             __end_of_USBCtrlTrfInHandler 1664                    i2_USBTransferOnePacket 14F0  
                              _cdc_notice 00C0                                 ?i2_memset 002B  
                              _cdc_rx_len 0023                                _cdc_tx_len 0025  
                ??_USBCtrlTrfSetupHandler 0045                   _USBTicksSinceSuspendEnd 00EA  
                        ?_USBDeviceAttach 002B                 __end_of_SYSTEM_Initialize 202C  
                  _USBStdGetStatusHandler 1710                                __pbssBANK0 00C0  
             __size_of_USBWakeFromSuspend 0034                               _pBDTEntryIn 000F  
        __end_of_USBCtrlEPServiceComplete 10D2               __size_of_USBCheckCDCRequest 00AC  
                    USBCtrlTrfRxService@i 002B                                   ?_memcpy 002B  
                                 ?_memset 0060                                _device_dsc 03BE  
                        _USBCtrlEPService 1A1E                                _ep_data_in 00D8  
                                 ?_update 0069               __end_of_USBCtrlTrfRxService 0FDE  
                      _USBCheckStdRequest 11AE                         _configDescriptor1 0313  
             __end_ofi2_SYSTEM_Initialize 2058                                ??i2_memset 0031  
             __end_of_USBCtrlTrfTxService 142E                       _USBStdSetCfgHandler 10D2  
                         __CFG_USBDIV$OFF 000000                       ?_USBCheckStdRequest 002B  
            __size_of_USBStdGetDscHandler 0120                                   _UIEbits 000F60  
                                 _UIRbits 000F62                             _cdc_trf_state 0024  
                         putsUSBUSART@len 0064                                   _pCDCDst 00DE  
                                 _pCDCSrc 00E1                           __CFG_PWRTEN$OFF 000000  
                   __size_of_getsUSBUSART 00A4                                   __Hparam 0000  
         ??_USBIncrement1msInternalTimers 002B                      ?_USBStdSetCfgHandler 002B  
                               _CDCInitEP 1C1C                                   __Lparam 0000  
              __size_of_USBEnableEndpoint 003C                      ??_USBCheckStdRequest 0045  
           __size_of_USBCtrlTrfOutHandler 005C                                   _cdcGets 1EF6  
                        ??_USBDeviceTasks 0046                                   _cdcInit 1F82  
                                 ___lwdiv 1B34                         ??_USBStallHandler 002B  
                                 ___lwmod 1C88                                   _cdcPuts 202C  
                            __psmallconst 0300                                   __pcinit 1FAC  
                      getsUSBUSART@buffer 0067                           __size_of_memcpy 0040  
                         __size_of_memset 0034                 __end_of_configDescriptor1 0356  
                                 __ramtop 0300                                   __ptext0 198E  
                                 __ptext1 1FF8                                   __ptext2 2058  
                                 __ptext3 0880                                   __ptext4 1E5C  
                                 __ptext5 1EC4                                   __ptext6 2014  
                                 __ptext7 0664                                   __ptext8 1C88  
                                 __ptext9 1B34                                   _inPipes 0009  
             _USBDeferOUTDataStagePackets 00E9                           __size_of_update 001C  
                                 _dpowers 0301                              ??_USBSuspend 003F  
                         i2_USBDeviceInit 09EE                          i2USBDeviceInit@i 0033  
                      __end_of_USB_CD_Ptr 0313                __size_of_SYSTEM_Initialize 0018  
                                 _sprintf 0664           __size_of_USBCtrlTrfSetupHandler 0086  
                    end_of_initialization 1FC4                              _getsUSBUSART 17BA  
                      __end_of_USB_SD_Ptr 0311                                   memcpy@d 0031  
                                 memcpy@n 002F                                   memcpy@s 0033  
                     _pBDTEntryEP0OutNext 0019                                   memset@c 0062  
                                 memset@n 0064                                   memset@p 0066  
                           __Lmediumconst 0000                           _USB1msTickCount 00D4  
         _dummy_encapsulated_cmd_response 00ED                  ?_USBStdFeatureReqHandler 002B  
                   ??_USBStdSetCfgHandler 003F                                ?_CDCInitEP 002B  
                      __end_of_USBSuspend 1F56                   _USBCtrlEPAllowDataStage 185E  
                                 postdec2 000FDD                                   postinc0 000FEE  
                                 postinc2 000FDE                  _USBCtrlEPServiceComplete 0FDE  
              _USBStatusStageEnabledFlag1 0020                _USBStatusStageEnabledFlag2 0021  
                      USBEnableEndpoint@p 0034                             cdcGets@length 006D  
                      _BothEP0OutUOWNsSet 001B                 USBConfigureEndpoint@EPNum 0030  
              ?_USBCtrlEPAllowStatusStage 002B       USER_USB_CALLBACK_EVENT_HANDLER@size 003B  
                               _USTATcopy 002A              __end_of_USBTransferOnePacket 1360  
                              main@length 00BE                    _USBCtrlTrfSetupHandler 1AAE  
                       putsUSBUSART@pData 0062                   ?i2_USBTransferOnePacket 002B  
                   __end_of_USBDeviceInit 09EE     __end_of_USBIncrement1msInternalTimers 1FF8  
  __size_of_USBIncrement1msInternalTimers 0026             _USBIncrement1msInternalTimers 1FD2  
                 __end_ofi2_USBDeviceInit 0B3E                             ?_putsUSBUSART 0060  
                               i2memset@c 002D                                 i2memset@n 002F  
                               i2memset@p 0031                            __end_of_memcpy 1E20  
                          __end_of_memset 1E90                         _USBBusIsSuspended 001D  
                          __end_of_update 2014                       start_initialization 1FAC  
                 ?_USBStdGetStatusHandler 002B                  i2SYSTEM_Initialize@state 002B  
           USBCtrlTrfRxService@byteToRead 002C                                _systemInit 2058  
                             _cdc_data_rx 000280                               _cdc_data_tx 000240  
                       __size_ofi2_memset 002C              __end_of_USBConfigureEndpoint 198E  
         __end_of_USBStdFeatureReqHandler 0664         __end_of_USBCtrlEPAllowStatusStage 14F0  
                __end_of_USBCtrlEPService 1AAE                 ??_USBCtrlEPAllowDataStage 002C  
                             ??_CDCInitEP 0037                            USBDeviceInit@i 0068  
                  _pBDTEntryEP0OutCurrent 0017                   USBTransferOnePacket@dir 0060  
                 USBTransferOnePacket@len 0063            __end_ofi2_USBTransferOnePacket 15AA  
                     _USBStdGetDscHandler 0DB2                                  ??_memcpy 0031  
                                ??_memset 0066                            ??_putsUSBUSART 0062  
                                ??_update 006B                               cdcGets@data 006B  
                  _USBActiveConfiguration 0029            __end_of_USBStdGetStatusHandler 17BA  
                             __pbssCOMRAM 0001                             __pcstackBANK0 0060  
                           __pcstackBANK1 0100              __size_of_USBCtrlTrfInHandler 00BA  
                    ?_USBStdGetDscHandler 002B                __end_of_USBWakeFromSuspend 1EC4  
                             sprintf@flag 0075                               sprintf@prec 0076  
                         _USBStallHandler 1D9A                              _pBDTEntryOut 00CA  
              __end_of_USBCheckCDCRequest 1710                  __size_of_USBDeviceAttach 0032  
                        ___lwdiv@dividend 0060                                 __pintcode 0008  
                                ?_cdcGets 006B                                  ?_cdcInit 002B  
                                ?___lwdiv 0060                                  ?___lwmod 0067  
                                ?_cdcPuts 0069                          ?i2_USBDeviceInit 002B  
                    _USBTransferOnePacket 1288                               __smallconst 0300  
                             cdcPuts@data 0069                               ?_systemInit 002B  
            __end_of_USBCtrlTrfOutHandler 1D46                     ??_USBStdGetDscHandler 002B  
                             _ep_data_out 00DB                          ___lwdiv@quotient 0065  
                                ?_sprintf 006C              __size_of_USBCtrlTrfRxService 010C  
           USBConfigureEndpoint@direction 002B              __size_ofi2_SYSTEM_Initialize 0014  
            __size_of_USBCtrlTrfTxService 00CE                ??_USBCtrlEPServiceComplete 002C  
                                _IPR2bits 000FA2                                  _PIE2bits 000FA0  
                                i2u212_40 0E26                                  i2u212_47 0E1C  
                                i2u213_40 0E54                                  i2u213_47 0E4A  
                                i2u215_40 0EA4                                  i2u215_47 0E9A  
                                _PIR2bits 000FA1                                  i2u196_40 13DA  
                                i2u196_47 13D0                                  i2u198_40 1418  
                                i2u198_47 140E                                  _RCONbits 000FD0  
                        __CFG_WDTPS$32768 000000                                  _UEP0bits 000F53  
              _USBDeferINDataStagePackets 00E8               __size_of_USBCheckStdRequest 00DA  
                                _UCONbits 000F64                      _USBConfigureEndpoint 18FA  
        __size_of_USBStdFeatureReqHandler 0280                     ?_USBTransferOnePacket 0060  
                       _SYS_InterruptHigh 0008                             ?_CDCTxService 002B  
                            _RemoteWakeup 001C                                  i2_memset 1F56  
                      ?_SYS_InterruptHigh 002B                          putsUSBUSART@data 0060  
                 __end_of_USBStallHandler 1DE0               ??_USBCtrlEPAllowStatusStage 002B  
             __end_of_USBStdSetCfgHandler 11AE                       ??_SYS_InterruptHigh 0047  
                    __end_of_putsUSBUSART 1D9A                        __end_of_device_dsc 03D0  
                 ?_USBCtrlTrfSetupHandler 002B                   USBStdGetStatusHandler@p 002C  
                                __Hrparam 0000                                  __Lrparam 0000  
                  USBTransferOnePacket@ep 0064                       __size_of_systemInit 0010  
                                _SetupPkt 000230                     ?_USBConfigureEndpoint 002B  
                       ??_USBDeviceAttach 0060                          __size_of_cdcGets 0032  
                        __size_of_cdcInit 002A                          __size_of___lwdiv 0078  
                        __size_of___lwmod 0062                          __size_of_cdcPuts 0018  
               __end_of_SYS_InterruptHigh 0082                               _line_coding 00F5  
                          ??_CDCTxService 0067                                sprintf@val 007B  
                 __size_of_USBDeviceTasks 0130                           ___lwdiv@divisor 0062  
                         ___lwdiv@counter 0064                                  __ptext10 202C  
                                __ptext11 1D46                                  __ptext20 1F28  
                                __ptext12 0B3E                                  __ptext21 1D9A  
                                __ptext13 1EF6                                  __ptext30 1F56  
                                __ptext22 1FD2                                  __ptext14 17BA  
                                __ptext31 1710                                  __ptext23 1A1E  
                                __ptext15 1288                                  __ptext40 18FA  
                                __ptext32 0DB2                                  __ptext24 1DE0  
                                __ptext41 1664                                  __ptext33 03E4  
                                __ptext25 1AAE                                  __ptext17 0C82  
                                __ptext42 1CEA                                  __ptext34 1BAC  
                                __ptext26 0FDE                                  __ptext18 09EE  
                                __ptext43 0ED2                                  __ptext35 2044  
                                __ptext27 185E                                  __ptext19 1E90  
                                __ptext44 142E                                  __ptext36 1F82  
                                __ptext28 11AE                                  __ptext45 15AA  
                                __ptext37 1C1C                                  __ptext29 10D2  
                                __ptext46 1360                                  __ptext38 14F0  
                                __ptext39 1E20                          __size_of_sprintf 021C  
          __end_of_USBCtrlTrfSetupHandler 1B34                             __size_of_main 0090  
                       ?_USBCtrlEPService 002B                        ??_USBCtrlEPService 0045  
                     _USBCtrlTrfInHandler 15AA                                  _outPipes 0001  
                    _USBCtrlTrfOutHandler 1CEA                                  int$flags 0055  
               _USBCtrlEPAllowStatusStage 142E                                  main@buff 007E  
                  ??_USBTransferOnePacket 0064                                  main@text 0100  
               _USBDeferStatusStagePacket 001E                  CDCTxService@byte_to_send 0068  
                              _INTCONbits 000FF2                      ?_USBCtrlTrfInHandler 002B  
                                memcpy@d1 002B                                  memcpy@s1 002D  
           USBCtrlTrfTxService@byteToSend 002B                                  memset@p1 0060  
                        ?_USBStallHandler 002B                  USBStdFeatureReqHandler@p 0043  
                                intlevel2 0000                                 sprintf@ap 0077  
                               sprintf@cp 0079                                 sprintf@sp 006C  
                  __size_of_USBDeviceInit 016E   __end_of_USER_USB_CALLBACK_EVENT_HANDLER 1C1C  
__size_of_USER_USB_CALLBACK_EVENT_HANDLER 0070         ??_USER_USB_CALLBACK_EVENT_HANDLER 003D  
        ?_USER_USB_CALLBACK_EVENT_HANDLER 0037           _USER_USB_CALLBACK_EVENT_HANDLER 1BAC  
                        ___lwmod@dividend 0067              i2USBTransferOnePacket@handle 0030  
              i2USBTransferOnePacket@data 002C                    ??_USBConfigureEndpoint 002C  
                   ?_USBCtrlTrfOutHandler 002B                      __CFG_CPUDIV$NOCLKDIV 000000  
                     _USBCtrlTrfRxService 0ED2                        _USBWakeFromSuspend 1E90  
                 _USBStdFeatureReqHandler 03E4                       i2_SYSTEM_Initialize 2044  
                      _USBCheckCDCRequest 1664                       _USBCtrlTrfTxService 1360  
              __size_of_SYS_InterruptHigh 007A                                  sprintf@c 007D  
                                sprintf@f 006E                       ?_USBWakeFromSuspend 002B  
                         ___lwmod@divisor 0069                     ??_USBCtrlTrfInHandler 002C  
                   _USBAlternateInterface 00FC                           ___lwmod@counter 006B  
                            ??_systemInit 0069                       ?_USBCheckCDCRequest 002B  
               i2USBTransferOnePacket@dir 002B                 i2USBTransferOnePacket@len 002E  
                     USBEnableEndpoint@ep 0036                           _endpoint_number 0027  
                   __size_of_putsUSBUSART 0054                      ?_USBCtrlTrfRxService 002B  
                           ?_getsUSBUSART 0067                      ?i2_SYSTEM_Initialize 002B  
                ?_USBCtrlEPAllowDataStage 002B                      ?_USBCtrlTrfTxService 002B  
            _USBStatusStageTimeoutCounter 0022                      ??_USBWakeFromSuspend 003F  
              USBTransferOnePacket@handle 0065                      __end_of_CDCTxService 0C82  
                    ??_USBCheckCDCRequest 002B                                _USB_CD_Ptr 0311  
